                              1 ;--------------------------------------------------------
                              2 ; File Created by SDCC : FreeWare ANSI-C Compiler
                              3 ; Version 2.2.1 Sun Sep 30 21:49:06 2018
                              4 
                              5 ;--------------------------------------------------------
                              6 	.module lcc113640
                              7 	
                              8 ;--------------------------------------------------------
                              9 ; Public variables in this module
                             10 ;--------------------------------------------------------
                             11 	.globl _main
                             12 	.globl _wait_event
                             13 	.globl _dump_registers
                             14 	.globl _play_music
                             15 	.globl _draw_screen
                             16 	.globl _update_value
                             17 	.globl _current_value
                             18 	.globl _NR52
                             19 	.globl _NR51
                             20 	.globl _NR50
                             21 	.globl _NR44
                             22 	.globl _NR43
                             23 	.globl _NR42
                             24 	.globl _NR41
                             25 	.globl _NR34
                             26 	.globl _NR33
                             27 	.globl _NR32
                             28 	.globl _NR31
                             29 	.globl _NR30
                             30 	.globl _NR24
                             31 	.globl _NR23
                             32 	.globl _NR22
                             33 	.globl _NR21
                             34 	.globl _NR14
                             35 	.globl _NR13
                             36 	.globl _NR12
                             37 	.globl _NR11
                             38 	.globl _NR10
                             39 	.globl _println
                             40 	.globl _printn
                             41 	.globl _print
                             42 	.globl _cls
                             43 	.globl _setchar
                             44 	.globl _gotoxy
                             45 	.globl _printf
                             46 	.globl _wait_vbl_done
                             47 	.globl _waitpadup
                             48 	.globl _joypad
                             49 	.globl _delay
                             50 	.globl _s
                             51 	.globl _soundReg
                             52 	.globl _params
                             53 	.globl _params_array
                             54 	.globl _keys
                             55 	.globl _previous_keys
                             56 	.globl _main
                             57 	.globl _wait_event
                             58 	.globl _dump_registers
                             59 	.globl _play_music
                             60 	.globl _draw_screen
                             61 	.globl _update_value
                             62 	.globl _current_value
                             63 	.globl _NR52
                             64 	.globl _NR51
                             65 	.globl _NR50
                             66 	.globl _NR44
                             67 	.globl _NR43
                             68 	.globl _NR42
                             69 	.globl _NR41
                             70 	.globl _NR34
                             71 	.globl _NR33
                             72 	.globl _NR32
                             73 	.globl _NR31
                             74 	.globl _NR30
                             75 	.globl _NR24
                             76 	.globl _NR23
                             77 	.globl _NR22
                             78 	.globl _NR21
                             79 	.globl _NR14
                             80 	.globl _NR13
                             81 	.globl _NR12
                             82 	.globl _NR11
                             83 	.globl _params_4
                             84 	.globl _params_3
                             85 	.globl _params_2
                             86 	.globl _params_1
                             87 	.globl _params_0
                             88 	.globl _music
                             89 	.globl _frequencies
                             90 	.globl _NR10
                             91 	.globl _println
                             92 	.globl _hex
                             93 	.globl _printn
                             94 	.globl _print
                             95 	.globl _cls
                             96 ;--------------------------------------------------------
                             97 ; Externals used
                             98 ;--------------------------------------------------------
                             99 	.globl _IE_REG
                            100 	.globl _SVBK_REG
                            101 	.globl _OCPD_REG
                            102 	.globl _OCPS_REG
                            103 	.globl _BCPD_REG
                            104 	.globl _BCPS_REG
                            105 	.globl _RP_REG
                            106 	.globl _HDMA5_REG
                            107 	.globl _HDMA4_REG
                            108 	.globl _HDMA3_REG
                            109 	.globl _HDMA2_REG
                            110 	.globl _HDMA1_REG
                            111 	.globl _VBK_REG
                            112 	.globl _KEY1_REG
                            113 	.globl _WX_REG
                            114 	.globl _WY_REG
                            115 	.globl _OBP1_REG
                            116 	.globl _OBP0_REG
                            117 	.globl _BGP_REG
                            118 	.globl _DMA_REG
                            119 	.globl _LYC_REG
                            120 	.globl _LY_REG
                            121 	.globl _SCX_REG
                            122 	.globl _SCY_REG
                            123 	.globl _STAT_REG
                            124 	.globl _LCDC_REG
                            125 	.globl _NR52_REG
                            126 	.globl _NR51_REG
                            127 	.globl _NR50_REG
                            128 	.globl _NR44_REG
                            129 	.globl _NR43_REG
                            130 	.globl _NR42_REG
                            131 	.globl _NR41_REG
                            132 	.globl _NR34_REG
                            133 	.globl _NR33_REG
                            134 	.globl _NR32_REG
                            135 	.globl _NR31_REG
                            136 	.globl _NR30_REG
                            137 	.globl _NR24_REG
                            138 	.globl _NR23_REG
                            139 	.globl _NR22_REG
                            140 	.globl _NR21_REG
                            141 	.globl _NR14_REG
                            142 	.globl _NR13_REG
                            143 	.globl _NR12_REG
                            144 	.globl _NR11_REG
                            145 	.globl _NR10_REG
                            146 	.globl _IF_REG
                            147 	.globl _TAC_REG
                            148 	.globl _TMA_REG
                            149 	.globl _TIMA_REG
                            150 	.globl _DIV_REG
                            151 	.globl _SC_REG
                            152 	.globl _SB_REG
                            153 	.globl _P1_REG
                            154 	.globl __io_out
                            155 	.globl __io_in
                            156 	.globl __io_status
                            157 	.globl _sys_time
                            158 	.globl __cpu
                            159 ;--------------------------------------------------------
                            160 ; special function registers
                            161 ;--------------------------------------------------------
                            162 ;--------------------------------------------------------
                            163 ; special function bits 
                            164 ;--------------------------------------------------------
                            165 ;--------------------------------------------------------
                            166 ; internal ram data
                            167 ;--------------------------------------------------------
                            168 	.area _DATA
   0000                     169 _previous_keys::
   0000                     170 	.ds 1
   0001                     171 _keys::
   0001                     172 	.ds 1
   0002                     173 _params_array::
   0002                     174 	.ds 10
   000C                     175 _params::
   000C                     176 	.ds 2
   000E                     177 _soundReg::
   000E                     178 	.ds 2
   0010                     179 _s::
   0010                     180 	.ds 132
                            181 ;--------------------------------------------------------
                            182 ; overlayable items in internal ram 
                            183 ;--------------------------------------------------------
                            184 	.area _OVERLAY
                            185 ;--------------------------------------------------------
                            186 ; indirectly addressable internal ram data
                            187 ;--------------------------------------------------------
                            188 	.area _ISEG
                            189 ;--------------------------------------------------------
                            190 ; bit data
                            191 ;--------------------------------------------------------
                            192 	.area _BSEG
                            193 ;--------------------------------------------------------
                            194 ; external ram data
                            195 ;--------------------------------------------------------
                            196 	.area _XSEG
                            197 ;--------------------------------------------------------
                            198 ; global & static initialisations
                            199 ;--------------------------------------------------------
                            200 	.area _GSINIT
                            201 	.area _GSFINAL
                            202 	.area _GSINIT
                            203 ;	sound.c 974
                            204 ; genAssign (pointer)
   0000 11 02 00            205 	ld	de,#_params_array + 0
   0003 3E 14               206 	ld	a,#<_params_0
   0005 12                  207 	ld	(de),a
   0006 13                  208 	inc	de
   0007 3E 02               209 	ld	a,#>_params_0
   0009 12                  210 	ld	(de),a
                            211 ; genPlus
                            212 ; genPlusIncr
   000A 11 04 00            213 	ld	de,#_params_array + 0 + 2
                            214 ; genAssign (pointer)
   000D 3E 30               215 	ld	a,#<_params_1
   000F 12                  216 	ld	(de),a
   0010 13                  217 	inc	de
   0011 3E 02               218 	ld	a,#>_params_1
   0013 12                  219 	ld	(de),a
                            220 ; genPlus
                            221 ; genPlusIncr
   0014 11 06 00            222 	ld	de,#_params_array + 0 + 4
                            223 ; genAssign (pointer)
   0017 3E 6C               224 	ld	a,#<_params_2
   0019 12                  225 	ld	(de),a
   001A 13                  226 	inc	de
   001B 3E 02               227 	ld	a,#>_params_2
   001D 12                  228 	ld	(de),a
                            229 ; genPlus
                            230 ; genPlusIncr
   001E 11 08 00            231 	ld	de,#_params_array + 0 + 6
                            232 ; genAssign (pointer)
   0021 3E 9C               233 	ld	a,#<_params_3
   0023 12                  234 	ld	(de),a
   0024 13                  235 	inc	de
   0025 3E 02               236 	ld	a,#>_params_3
   0027 12                  237 	ld	(de),a
                            238 ; genPlus
                            239 ; genPlusIncr
   0028 11 0A 00            240 	ld	de,#_params_array + 0 + 8
                            241 ; genAssign (pointer)
   002B 3E C4               242 	ld	a,#<_params_4
   002D 12                  243 	ld	(de),a
   002E 13                  244 	inc	de
   002F 3E 02               245 	ld	a,#>_params_4
   0031 12                  246 	ld	(de),a
                            247 ;	sound.c 974
                            248 ; genAssign (pointer)
   0032 11 10 00            249 	ld	de,#_s + 0
   0035 3E 00               250 	ld	a,#0x00
   0037 12                  251 	ld	(de),a
   0038 13                  252 	inc	de
   0039 3E 00               253 	ld	a,#0x00
   003B 12                  254 	ld	(de),a
                            255 ; genPlus
                            256 ; genPlusIncr
   003C 11 12 00            257 	ld	de,#_s + 0 + 2
                            258 ; genAssign (pointer)
   003F 3E 00               259 	ld	a,#0x00
   0041 12                  260 	ld	(de),a
   0042 13                  261 	inc	de
   0043 3E 00               262 	ld	a,#0x00
   0045 12                  263 	ld	(de),a
                            264 ; genPlus
                            265 ; genPlusIncr
   0046 11 14 00            266 	ld	de,#_s + 0 + 4
                            267 ; genAssign (pointer)
   0049 3E 00               268 	ld	a,#0x00
   004B 12                  269 	ld	(de),a
   004C 13                  270 	inc	de
   004D 3E 00               271 	ld	a,#0x00
   004F 12                  272 	ld	(de),a
                            273 ; genPlus
                            274 ; genPlusIncr
   0050 11 16 00            275 	ld	de,#_s + 0 + 6
                            276 ; genAssign (pointer)
   0053 3E 00               277 	ld	a,#0x00
   0055 12                  278 	ld	(de),a
   0056 13                  279 	inc	de
   0057 3E 00               280 	ld	a,#0x00
   0059 12                  281 	ld	(de),a
                            282 ; genPlus
                            283 ; genPlusIncr
   005A 11 18 00            284 	ld	de,#_s + 0 + 8
                            285 ; genAssign (pointer)
   005D 3E 01               286 	ld	a,#0x01
   005F 12                  287 	ld	(de),a
   0060 13                  288 	inc	de
   0061 3E 00               289 	ld	a,#0x00
   0063 12                  290 	ld	(de),a
                            291 ; genPlus
                            292 ; genPlusIncr
   0064 11 1A 00            293 	ld	de,#_s + 0 + 10
                            294 ; genAssign (pointer)
   0067 3E 02               295 	ld	a,#0x02
   0069 12                  296 	ld	(de),a
   006A 13                  297 	inc	de
   006B 3E 00               298 	ld	a,#0x00
   006D 12                  299 	ld	(de),a
                            300 ; genPlus
                            301 ; genPlusIncr
   006E 11 1C 00            302 	ld	de,#_s + 0 + 12
                            303 ; genAssign (pointer)
   0071 3E 03               304 	ld	a,#0x03
   0073 12                  305 	ld	(de),a
   0074 13                  306 	inc	de
   0075 3E 00               307 	ld	a,#0x00
   0077 12                  308 	ld	(de),a
                            309 ; genPlus
                            310 ; genPlusIncr
   0078 11 1E 00            311 	ld	de,#_s + 0 + 14
                            312 ; genAssign (pointer)
   007B 3E 00               313 	ld	a,#0x00
   007D 12                  314 	ld	(de),a
   007E 13                  315 	inc	de
   007F 3E 00               316 	ld	a,#0x00
   0081 12                  317 	ld	(de),a
                            318 ; genPlus
                            319 ; genPlusIncr
   0082 11 20 00            320 	ld	de,#_s + 0 + 16
                            321 ; genAssign (pointer)
   0085 3E 04               322 	ld	a,#0x04
   0087 12                  323 	ld	(de),a
   0088 13                  324 	inc	de
   0089 3E 00               325 	ld	a,#0x00
   008B 12                  326 	ld	(de),a
                            327 ; genPlus
                            328 ; genPlusIncr
   008C 11 22 00            329 	ld	de,#_s + 0 + 18
                            330 ; genAssign (pointer)
   008F 3E 73               331 	ld	a,#0x73
   0091 12                  332 	ld	(de),a
   0092 13                  333 	inc	de
   0093 3E 00               334 	ld	a,#0x00
   0095 12                  335 	ld	(de),a
                            336 ; genPlus
                            337 ; genPlusIncr
   0096 11 24 00            338 	ld	de,#_s + 0 + 20
                            339 ; genAssign (pointer)
   0099 3E 06               340 	ld	a,#0x06
   009B 12                  341 	ld	(de),a
   009C 13                  342 	inc	de
   009D 3E 00               343 	ld	a,#0x00
   009F 12                  344 	ld	(de),a
                            345 ; genPlus
                            346 ; genPlusIncr
   00A0 11 26 00            347 	ld	de,#_s + 0 + 22
                            348 ; genAssign (pointer)
   00A3 3E 00               349 	ld	a,#0x00
   00A5 12                  350 	ld	(de),a
   00A6 13                  351 	inc	de
   00A7 3E 00               352 	ld	a,#0x00
   00A9 12                  353 	ld	(de),a
                            354 ; genPlus
                            355 ; genPlusIncr
   00AA 11 28 00            356 	ld	de,#_s + 0 + 24
                            357 ; genAssign (pointer)
   00AD 3E 00               358 	ld	a,#0x00
   00AF 12                  359 	ld	(de),a
   00B0 13                  360 	inc	de
   00B1 3E 00               361 	ld	a,#0x00
   00B3 12                  362 	ld	(de),a
                            363 ; genPlus
                            364 ; genPlusIncr
   00B4 11 2A 00            365 	ld	de,#_s + 0 + 26
                            366 ; genAssign (pointer)
   00B7 3E 00               367 	ld	a,#0x00
   00B9 12                  368 	ld	(de),a
   00BA 13                  369 	inc	de
   00BB 3E 00               370 	ld	a,#0x00
   00BD 12                  371 	ld	(de),a
                            372 ; genPlus
                            373 ; genPlusIncr
   00BE 11 2C 00            374 	ld	de,#_s + 0 + 28
                            375 ; genAssign (pointer)
   00C1 3E 00               376 	ld	a,#0x00
   00C3 12                  377 	ld	(de),a
   00C4 13                  378 	inc	de
   00C5 3E 00               379 	ld	a,#0x00
   00C7 12                  380 	ld	(de),a
                            381 ; genPlus
                            382 ; genPlusIncr
   00C8 11 2E 00            383 	ld	de,#_s + 0 + 30
                            384 ; genAssign (pointer)
   00CB 3E 01               385 	ld	a,#0x01
   00CD 12                  386 	ld	(de),a
   00CE 13                  387 	inc	de
   00CF 3E 00               388 	ld	a,#0x00
   00D1 12                  389 	ld	(de),a
                            390 ; genPlus
                            391 ; genPlusIncr
   00D2 11 30 00            392 	ld	de,#_s + 0 + 32
                            393 ; genAssign (pointer)
   00D5 3E 02               394 	ld	a,#0x02
   00D7 12                  395 	ld	(de),a
   00D8 13                  396 	inc	de
   00D9 3E 00               397 	ld	a,#0x00
   00DB 12                  398 	ld	(de),a
                            399 ; genPlus
                            400 ; genPlusIncr
   00DC 11 32 00            401 	ld	de,#_s + 0 + 34
                            402 ; genAssign (pointer)
   00DF 3E 04               403 	ld	a,#0x04
   00E1 12                  404 	ld	(de),a
   00E2 13                  405 	inc	de
   00E3 3E 00               406 	ld	a,#0x00
   00E5 12                  407 	ld	(de),a
                            408 ; genPlus
                            409 ; genPlusIncr
   00E6 11 34 00            410 	ld	de,#_s + 0 + 36
                            411 ; genAssign (pointer)
   00E9 3E 00               412 	ld	a,#0x00
   00EB 12                  413 	ld	(de),a
   00EC 13                  414 	inc	de
   00ED 3E 00               415 	ld	a,#0x00
   00EF 12                  416 	ld	(de),a
                            417 ; genPlus
                            418 ; genPlusIncr
   00F0 11 36 00            419 	ld	de,#_s + 0 + 38
                            420 ; genAssign (pointer)
   00F3 3E 08               421 	ld	a,#0x08
   00F5 12                  422 	ld	(de),a
   00F6 13                  423 	inc	de
   00F7 3E 00               424 	ld	a,#0x00
   00F9 12                  425 	ld	(de),a
                            426 ; genPlus
                            427 ; genPlusIncr
   00FA 11 38 00            428 	ld	de,#_s + 0 + 40
                            429 ; genAssign (pointer)
   00FD 3E D7               430 	ld	a,#0xD7
   00FF 12                  431 	ld	(de),a
   0100 13                  432 	inc	de
   0101 3E 00               433 	ld	a,#0x00
   0103 12                  434 	ld	(de),a
                            435 ; genPlus
                            436 ; genPlusIncr
   0104 11 3A 00            437 	ld	de,#_s + 0 + 42
                            438 ; genAssign (pointer)
   0107 3E 06               439 	ld	a,#0x06
   0109 12                  440 	ld	(de),a
   010A 13                  441 	inc	de
   010B 3E 00               442 	ld	a,#0x00
   010D 12                  443 	ld	(de),a
                            444 ; genPlus
                            445 ; genPlusIncr
   010E 11 3C 00            446 	ld	de,#_s + 0 + 44
                            447 ; genAssign (pointer)
   0111 3E 00               448 	ld	a,#0x00
   0113 12                  449 	ld	(de),a
   0114 13                  450 	inc	de
   0115 3E 00               451 	ld	a,#0x00
   0117 12                  452 	ld	(de),a
                            453 ; genPlus
                            454 ; genPlusIncr
   0118 11 3E 00            455 	ld	de,#_s + 0 + 46
                            456 ; genAssign (pointer)
   011B 3E 00               457 	ld	a,#0x00
   011D 12                  458 	ld	(de),a
   011E 13                  459 	inc	de
   011F 3E 00               460 	ld	a,#0x00
   0121 12                  461 	ld	(de),a
                            462 ; genPlus
                            463 ; genPlusIncr
   0122 11 40 00            464 	ld	de,#_s + 0 + 48
                            465 ; genAssign (pointer)
   0125 3E 00               466 	ld	a,#0x00
   0127 12                  467 	ld	(de),a
   0128 13                  468 	inc	de
   0129 3E 00               469 	ld	a,#0x00
   012B 12                  470 	ld	(de),a
                            471 ; genPlus
                            472 ; genPlusIncr
   012C 11 42 00            473 	ld	de,#_s + 0 + 50
                            474 ; genAssign (pointer)
   012F 3E 00               475 	ld	a,#0x00
   0131 12                  476 	ld	(de),a
   0132 13                  477 	inc	de
   0133 3E 00               478 	ld	a,#0x00
   0135 12                  479 	ld	(de),a
                            480 ; genPlus
                            481 ; genPlusIncr
   0136 11 44 00            482 	ld	de,#_s + 0 + 52
                            483 ; genAssign (pointer)
   0139 3E 01               484 	ld	a,#0x01
   013B 12                  485 	ld	(de),a
   013C 13                  486 	inc	de
   013D 3E 00               487 	ld	a,#0x00
   013F 12                  488 	ld	(de),a
                            489 ; genPlus
                            490 ; genPlusIncr
   0140 11 46 00            491 	ld	de,#_s + 0 + 54
                            492 ; genAssign (pointer)
   0143 3E 00               493 	ld	a,#0x00
   0145 12                  494 	ld	(de),a
   0146 13                  495 	inc	de
   0147 3E 00               496 	ld	a,#0x00
   0149 12                  497 	ld	(de),a
                            498 ; genPlus
                            499 ; genPlusIncr
   014A 11 48 00            500 	ld	de,#_s + 0 + 56
                            501 ; genAssign (pointer)
   014D 3E 00               502 	ld	a,#0x00
   014F 12                  503 	ld	(de),a
   0150 13                  504 	inc	de
   0151 3E 00               505 	ld	a,#0x00
   0153 12                  506 	ld	(de),a
                            507 ; genPlus
                            508 ; genPlusIncr
   0154 11 4A 00            509 	ld	de,#_s + 0 + 58
                            510 ; genAssign (pointer)
   0157 3E 01               511 	ld	a,#0x01
   0159 12                  512 	ld	(de),a
   015A 13                  513 	inc	de
   015B 3E 00               514 	ld	a,#0x00
   015D 12                  515 	ld	(de),a
                            516 ; genPlus
                            517 ; genPlusIncr
   015E 11 4C 00            518 	ld	de,#_s + 0 + 60
                            519 ; genAssign (pointer)
   0161 3E 00               520 	ld	a,#0x00
   0163 12                  521 	ld	(de),a
   0164 13                  522 	inc	de
   0165 3E 00               523 	ld	a,#0x00
   0167 12                  524 	ld	(de),a
                            525 ; genPlus
                            526 ; genPlusIncr
   0168 11 4E 00            527 	ld	de,#_s + 0 + 62
                            528 ; genAssign (pointer)
   016B 3E D6               529 	ld	a,#0xD6
   016D 12                  530 	ld	(de),a
   016E 13                  531 	inc	de
   016F 3E 00               532 	ld	a,#0x00
   0171 12                  533 	ld	(de),a
                            534 ; genPlus
                            535 ; genPlusIncr
   0172 11 50 00            536 	ld	de,#_s + 0 + 64
                            537 ; genAssign (pointer)
   0175 3E 06               538 	ld	a,#0x06
   0177 12                  539 	ld	(de),a
   0178 13                  540 	inc	de
   0179 3E 00               541 	ld	a,#0x00
   017B 12                  542 	ld	(de),a
                            543 ; genPlus
                            544 ; genPlusIncr
   017C 11 52 00            545 	ld	de,#_s + 0 + 66
                            546 ; genAssign (pointer)
   017F 3E 00               547 	ld	a,#0x00
   0181 12                  548 	ld	(de),a
   0182 13                  549 	inc	de
   0183 3E 00               550 	ld	a,#0x00
   0185 12                  551 	ld	(de),a
                            552 ; genPlus
                            553 ; genPlusIncr
   0186 11 54 00            554 	ld	de,#_s + 0 + 68
                            555 ; genAssign (pointer)
   0189 3E 00               556 	ld	a,#0x00
   018B 12                  557 	ld	(de),a
   018C 13                  558 	inc	de
   018D 3E 00               559 	ld	a,#0x00
   018F 12                  560 	ld	(de),a
                            561 ; genPlus
                            562 ; genPlusIncr
   0190 11 56 00            563 	ld	de,#_s + 0 + 70
                            564 ; genAssign (pointer)
   0193 3E 00               565 	ld	a,#0x00
   0195 12                  566 	ld	(de),a
   0196 13                  567 	inc	de
   0197 3E 00               568 	ld	a,#0x00
   0199 12                  569 	ld	(de),a
                            570 ; genPlus
                            571 ; genPlusIncr
   019A 11 58 00            572 	ld	de,#_s + 0 + 72
                            573 ; genAssign (pointer)
   019D 3E 00               574 	ld	a,#0x00
   019F 12                  575 	ld	(de),a
   01A0 13                  576 	inc	de
   01A1 3E 00               577 	ld	a,#0x00
   01A3 12                  578 	ld	(de),a
                            579 ; genPlus
                            580 ; genPlusIncr
   01A4 11 5A 00            581 	ld	de,#_s + 0 + 74
                            582 ; genAssign (pointer)
   01A7 3E 3A               583 	ld	a,#0x3A
   01A9 12                  584 	ld	(de),a
   01AA 13                  585 	inc	de
   01AB 3E 00               586 	ld	a,#0x00
   01AD 12                  587 	ld	(de),a
                            588 ; genPlus
                            589 ; genPlusIncr
   01AE 11 5C 00            590 	ld	de,#_s + 0 + 76
                            591 ; genAssign (pointer)
   01B1 3E 00               592 	ld	a,#0x00
   01B3 12                  593 	ld	(de),a
   01B4 13                  594 	inc	de
   01B5 3E 00               595 	ld	a,#0x00
   01B7 12                  596 	ld	(de),a
                            597 ; genPlus
                            598 ; genPlusIncr
   01B8 11 5E 00            599 	ld	de,#_s + 0 + 78
                            600 ; genAssign (pointer)
   01BB 3E 01               601 	ld	a,#0x01
   01BD 12                  602 	ld	(de),a
   01BE 13                  603 	inc	de
   01BF 3E 00               604 	ld	a,#0x00
   01C1 12                  605 	ld	(de),a
                            606 ; genPlus
                            607 ; genPlusIncr
   01C2 11 60 00            608 	ld	de,#_s + 0 + 80
                            609 ; genAssign (pointer)
   01C5 3E 00               610 	ld	a,#0x00
   01C7 12                  611 	ld	(de),a
   01C8 13                  612 	inc	de
   01C9 3E 00               613 	ld	a,#0x00
   01CB 12                  614 	ld	(de),a
                            615 ; genPlus
                            616 ; genPlusIncr
   01CC 11 62 00            617 	ld	de,#_s + 0 + 82
                            618 ; genAssign (pointer)
   01CF 3E 0A               619 	ld	a,#0x0A
   01D1 12                  620 	ld	(de),a
   01D2 13                  621 	inc	de
   01D3 3E 00               622 	ld	a,#0x00
   01D5 12                  623 	ld	(de),a
                            624 ; genPlus
                            625 ; genPlusIncr
   01D6 11 64 00            626 	ld	de,#_s + 0 + 84
                            627 ; genAssign (pointer)
   01D9 3E 00               628 	ld	a,#0x00
   01DB 12                  629 	ld	(de),a
   01DC 13                  630 	inc	de
   01DD 3E 00               631 	ld	a,#0x00
   01DF 12                  632 	ld	(de),a
                            633 ; genPlus
                            634 ; genPlusIncr
   01E0 11 66 00            635 	ld	de,#_s + 0 + 86
                            636 ; genAssign (pointer)
   01E3 3E 00               637 	ld	a,#0x00
   01E5 12                  638 	ld	(de),a
   01E6 13                  639 	inc	de
   01E7 3E 00               640 	ld	a,#0x00
   01E9 12                  641 	ld	(de),a
                            642 ; genPlus
                            643 ; genPlusIncr
   01EA 11 68 00            644 	ld	de,#_s + 0 + 88
                            645 ; genAssign (pointer)
   01ED 3E 00               646 	ld	a,#0x00
   01EF 12                  647 	ld	(de),a
   01F0 13                  648 	inc	de
   01F1 3E 00               649 	ld	a,#0x00
   01F3 12                  650 	ld	(de),a
                            651 ; genPlus
                            652 ; genPlusIncr
   01F4 11 6A 00            653 	ld	de,#_s + 0 + 90
                            654 ; genAssign (pointer)
   01F7 3E 00               655 	ld	a,#0x00
   01F9 12                  656 	ld	(de),a
   01FA 13                  657 	inc	de
   01FB 3E 00               658 	ld	a,#0x00
   01FD 12                  659 	ld	(de),a
                            660 ; genPlus
                            661 ; genPlusIncr
   01FE 11 6C 00            662 	ld	de,#_s + 0 + 92
                            663 ; genAssign (pointer)
   0201 3E 01               664 	ld	a,#0x01
   0203 12                  665 	ld	(de),a
   0204 13                  666 	inc	de
   0205 3E 00               667 	ld	a,#0x00
   0207 12                  668 	ld	(de),a
                            669 ; genPlus
                            670 ; genPlusIncr
   0208 11 6E 00            671 	ld	de,#_s + 0 + 94
                            672 ; genAssign (pointer)
   020B 3E 00               673 	ld	a,#0x00
   020D 12                  674 	ld	(de),a
   020E 13                  675 	inc	de
   020F 3E 00               676 	ld	a,#0x00
   0211 12                  677 	ld	(de),a
                            678 ; genPlus
                            679 ; genPlusIncr
   0212 11 70 00            680 	ld	de,#_s + 0 + 96
                            681 ; genAssign (pointer)
   0215 3E 07               682 	ld	a,#0x07
   0217 12                  683 	ld	(de),a
   0218 13                  684 	inc	de
   0219 3E 00               685 	ld	a,#0x00
   021B 12                  686 	ld	(de),a
                            687 ; genPlus
                            688 ; genPlusIncr
   021C 11 72 00            689 	ld	de,#_s + 0 + 98
                            690 ; genAssign (pointer)
   021F 3E 00               691 	ld	a,#0x00
   0221 12                  692 	ld	(de),a
   0222 13                  693 	inc	de
   0223 3E 00               694 	ld	a,#0x00
   0225 12                  695 	ld	(de),a
                            696 ; genPlus
                            697 ; genPlusIncr
   0226 11 74 00            698 	ld	de,#_s + 0 + 100
                            699 ; genAssign (pointer)
   0229 3E 07               700 	ld	a,#0x07
   022B 12                  701 	ld	(de),a
   022C 13                  702 	inc	de
   022D 3E 00               703 	ld	a,#0x00
   022F 12                  704 	ld	(de),a
                            705 ; genPlus
                            706 ; genPlusIncr
   0230 11 76 00            707 	ld	de,#_s + 0 + 102
                            708 ; genAssign (pointer)
   0233 3E 00               709 	ld	a,#0x00
   0235 12                  710 	ld	(de),a
   0236 13                  711 	inc	de
   0237 3E 00               712 	ld	a,#0x00
   0239 12                  713 	ld	(de),a
                            714 ; genPlus
                            715 ; genPlusIncr
   023A 11 78 00            716 	ld	de,#_s + 0 + 104
                            717 ; genAssign (pointer)
   023D 3E 01               718 	ld	a,#0x01
   023F 12                  719 	ld	(de),a
   0240 13                  720 	inc	de
   0241 3E 00               721 	ld	a,#0x00
   0243 12                  722 	ld	(de),a
                            723 ; genPlus
                            724 ; genPlusIncr
   0244 11 7A 00            725 	ld	de,#_s + 0 + 106
                            726 ; genAssign (pointer)
   0247 3E 01               727 	ld	a,#0x01
   0249 12                  728 	ld	(de),a
   024A 13                  729 	inc	de
   024B 3E 00               730 	ld	a,#0x00
   024D 12                  731 	ld	(de),a
                            732 ; genPlus
                            733 ; genPlusIncr
   024E 11 7C 00            734 	ld	de,#_s + 0 + 108
                            735 ; genAssign (pointer)
   0251 3E 01               736 	ld	a,#0x01
   0253 12                  737 	ld	(de),a
   0254 13                  738 	inc	de
   0255 3E 00               739 	ld	a,#0x00
   0257 12                  740 	ld	(de),a
                            741 ; genPlus
                            742 ; genPlusIncr
   0258 11 7E 00            743 	ld	de,#_s + 0 + 110
                            744 ; genAssign (pointer)
   025B 3E 01               745 	ld	a,#0x01
   025D 12                  746 	ld	(de),a
   025E 13                  747 	inc	de
   025F 3E 00               748 	ld	a,#0x00
   0261 12                  749 	ld	(de),a
                            750 ; genPlus
                            751 ; genPlusIncr
   0262 11 80 00            752 	ld	de,#_s + 0 + 112
                            753 ; genAssign (pointer)
   0265 3E 01               754 	ld	a,#0x01
   0267 12                  755 	ld	(de),a
   0268 13                  756 	inc	de
   0269 3E 00               757 	ld	a,#0x00
   026B 12                  758 	ld	(de),a
                            759 ; genPlus
                            760 ; genPlusIncr
   026C 11 82 00            761 	ld	de,#_s + 0 + 114
                            762 ; genAssign (pointer)
   026F 3E 01               763 	ld	a,#0x01
   0271 12                  764 	ld	(de),a
   0272 13                  765 	inc	de
   0273 3E 00               766 	ld	a,#0x00
   0275 12                  767 	ld	(de),a
                            768 ; genPlus
                            769 ; genPlusIncr
   0276 11 84 00            770 	ld	de,#_s + 0 + 116
                            771 ; genAssign (pointer)
   0279 3E 01               772 	ld	a,#0x01
   027B 12                  773 	ld	(de),a
   027C 13                  774 	inc	de
   027D 3E 00               775 	ld	a,#0x00
   027F 12                  776 	ld	(de),a
                            777 ; genPlus
                            778 ; genPlusIncr
   0280 11 86 00            779 	ld	de,#_s + 0 + 118
                            780 ; genAssign (pointer)
   0283 3E 01               781 	ld	a,#0x01
   0285 12                  782 	ld	(de),a
   0286 13                  783 	inc	de
   0287 3E 00               784 	ld	a,#0x00
   0289 12                  785 	ld	(de),a
                            786 ; genPlus
                            787 ; genPlusIncr
   028A 11 88 00            788 	ld	de,#_s + 0 + 120
                            789 ; genAssign (pointer)
   028D 3E 00               790 	ld	a,#0x00
   028F 12                  791 	ld	(de),a
   0290 13                  792 	inc	de
   0291 3E 00               793 	ld	a,#0x00
   0293 12                  794 	ld	(de),a
                            795 ; genPlus
                            796 ; genPlusIncr
   0294 11 8A 00            797 	ld	de,#_s + 0 + 122
                            798 ; genAssign (pointer)
   0297 3E 00               799 	ld	a,#0x00
   0299 12                  800 	ld	(de),a
   029A 13                  801 	inc	de
   029B 3E 00               802 	ld	a,#0x00
   029D 12                  803 	ld	(de),a
                            804 ; genPlus
                            805 ; genPlusIncr
   029E 11 8C 00            806 	ld	de,#_s + 0 + 124
                            807 ; genAssign (pointer)
   02A1 3E 00               808 	ld	a,#0x00
   02A3 12                  809 	ld	(de),a
   02A4 13                  810 	inc	de
   02A5 3E 00               811 	ld	a,#0x00
   02A7 12                  812 	ld	(de),a
                            813 ; genPlus
                            814 ; genPlusIncr
   02A8 11 8E 00            815 	ld	de,#_s + 0 + 126
                            816 ; genAssign (pointer)
   02AB 3E 00               817 	ld	a,#0x00
   02AD 12                  818 	ld	(de),a
   02AE 13                  819 	inc	de
   02AF 3E 00               820 	ld	a,#0x00
   02B1 12                  821 	ld	(de),a
                            822 ; genPlus
                            823 ; genPlusIncr
   02B2 11 90 00            824 	ld	de,#_s + 0 + 128
                            825 ; genAssign (pointer)
   02B5 3E 00               826 	ld	a,#0x00
   02B7 12                  827 	ld	(de),a
   02B8 13                  828 	inc	de
   02B9 3E 00               829 	ld	a,#0x00
   02BB 12                  830 	ld	(de),a
                            831 ; genPlus
                            832 ; genPlusIncr
   02BC 11 92 00            833 	ld	de,#_s + 0 + 130
                            834 ; genAssign (pointer)
   02BF 3E 01               835 	ld	a,#0x01
   02C1 12                  836 	ld	(de),a
   02C2 13                  837 	inc	de
   02C3 3E 00               838 	ld	a,#0x00
   02C5 12                  839 	ld	(de),a
                            840 ;--------------------------------------------------------
                            841 ; Home
                            842 ;--------------------------------------------------------
                            843 	.area _HOME
                            844 	.area _CODE
                            845 ;--------------------------------------------------------
                            846 ; code
                            847 ;--------------------------------------------------------
                            848 	.area _CODE
                            849 ;	sound.c 31
                            850 ; genLabel
                            851 ; genFunction
                            852 ;	---------------------------------
                            853 ; Function cls
                            854 ; ---------------------------------
   0000                     855 ___cls_start:
   0000                     856 _cls:
   0000 C5                  857 	push	bc
                            858 	
                            859 ;	sound.c 33
                            860 ; genAssign
   0001 0E 00               861 	ld	c,#0x00
                            862 ; genLabel
   0003                     863 00101$:
                            864 ; genCmpLt
   0003 79                  865 	ld	a,c
   0004 FE 12               866 	cp	#0x12
   0006 D2 22 00            867 	jp	nc,00105$
                            868 ;	sound.c 34
                            869 ; genIpush
   0009 79                  870 	ld	a,c
   000A F5                  871 	push	af
   000B 33                  872 	inc	sp
                            873 ; genIpush
   000C 3E 00               874 	ld	a,#0x00
   000E F5                  875 	push	af
   000F 33                  876 	inc	sp
                            877 ; genCall
   0010 CD 00 00            878 	call	_gotoxy
   0013 E8 02               879 	lda	sp,2(sp)
                            880 ;	sound.c 35
                            881 ; genIpush
   0015 21 24 00            882 	ld	hl,#__str_0 + 0
   0018 E5                  883 	push	hl
                            884 ; genCall
   0019 CD 00 00            885 	call	_printf
   001C E8 02               886 	lda	sp,2(sp)
                            887 ;	sound.c 33
                            888 ; genPlus
                            889 ; genPlusIncr
   001E 0C                  890 	inc	c
                            891 ; genGoto
   001F C3 03 00            892 	jp	00101$
                            893 ; genLabel
   0022                     894 00105$:
                            895 ; genEndFunction
                            896 	
   0022 C1                  897 	pop	bc
   0023 C9                  898 	ret
   0024                     899 ___cls_end:
   0024                     900 __str_0:
   0024 20 20 20 20 20 20   901 	.ascii "                    "
        20 20 20 20 20 20
        20 20 20 20 20 20
        20 20
   0038 00                  902 	.db 0x00
                            903 ;	sound.c 39
                            904 ; genLabel
                            905 ; genFunction
                            906 ;	---------------------------------
                            907 ; Function print
                            908 ; ---------------------------------
   0039                     909 ___print_start:
   0039                     910 _print:
                            911 	
                            912 ;	sound.c 40
                            913 ; genIpush
                            914 ; AOP_STK for 
   0039 F8 02               915 	lda	hl,2(sp)
   003B 2A                  916 	ld	a,(hl+)
   003C 66                  917 	ld	h,(hl)
   003D 6F                  918 	ld	l,a
   003E E5                  919 	push	hl
                            920 ; genIpush
   003F 21 49 00            921 	ld	hl,#__str_1 + 0
   0042 E5                  922 	push	hl
                            923 ; genCall
   0043 CD 00 00            924 	call	_printf
   0046 E8 04               925 	lda	sp,4(sp)
                            926 ; genLabel
   0048                     927 00101$:
                            928 ; genEndFunction
                            929 	
   0048 C9                  930 	ret
   0049                     931 ___print_end:
   0049                     932 __str_1:
   0049 25 73               933 	.ascii "%s"
   004B 00                  934 	.db 0x00
                            935 ;	sound.c 44
                            936 ; genLabel
                            937 ; genFunction
                            938 ;	---------------------------------
                            939 ; Function printn
                            940 ; ---------------------------------
   004C                     941 ___printn_start:
   004C                     942 _printn:
   004C C5                  943 	push	bc
                            944 	
                            945 ;	sound.c 45
                            946 ; genCmpEq
                            947 ; AOP_STK for 
   004D F8 06               948 	lda	hl,6(sp)
   004F 7E                  949 	ld	a,(hl) ; 2
   0050 FE 10               950 	cp	a,#0x10
   0052 C2 57 00            951 	jp	nz,00107$
   0055 18 03               952 	jr	00108$
   0057                     953 00107$:
   0057 C3 A7 00            954 	jp	00102$
   005A                     955 00108$:
                            956 ;	sound.c 46
                            957 ; genRightShift
                            958 ; AOP_STK for 
                            959 ; shift right 	result 2, left 2
   005A F8 04               960 	lda	hl,4(sp)
   005C 4E                  961 	ld	c,(hl)
   005D 23                  962 	inc	hl
   005E 46                  963 	ld	b,(hl)
   005F 3E 05               964 	ld	a,#0x04+1
   0061 18 05               965 	jr	00110$
   0063                     966 00109$:
   0063 B7                  967 	or	a,a
   0064 CB 18               968 	rr	b
   0066 CB 19               969 	rr	c
   0068                     970 00110$:
   0068 3D                  971 	dec	a
   0069 20 F8               972 	jr	nz,00109$
                            973 ; genCast
                            974 ; Removed redundent load
                            975 ; genAnd
   006B 79                  976 	ld	a,c
   006C E6 0F               977 	and	a,#0x0F
   006E 4F                  978 	ld	c,a
                            979 ; genPlus
                            980 ;	genPlusIncr failed
   006F 3E B8               981 	ld	a,#<_hex
   0071 81                  982 	add	a,c
   0072 5F                  983 	ld	e,a
   0073 3E 00               984 	ld	a,#>_hex
   0075 CE 00               985 	adc	a,#0x00
   0077 57                  986 	ld	d,a
                            987 ; genPointerGet
   0078 1A                  988 	ld	a,(de)
   0079 4F                  989 	ld	c,a
                            990 ; genIpush
   007A 79                  991 	ld	a,c
   007B F5                  992 	push	af
   007C 33                  993 	inc	sp
                            994 ; genIpush
   007D 21 C9 00            995 	ld	hl,#__str_2 + 0
   0080 E5                  996 	push	hl
                            997 ; genCall
   0081 CD 00 00            998 	call	_printf
   0084 E8 03               999 	lda	sp,3(sp)
                           1000 ;	sound.c 47
                           1001 ; genCast
                           1002 ; AOP_STK for 
   0086 F8 04              1003 	lda	hl,4(sp)
   0088 4E                 1004 	ld	c,(hl)
                           1005 ; genAnd
   0089 79                 1006 	ld	a,c
   008A E6 0F              1007 	and	a,#0x0F
   008C 4F                 1008 	ld	c,a
                           1009 ; genPlus
                           1010 ;	genPlusIncr failed
   008D 3E B8              1011 	ld	a,#<_hex
   008F 81                 1012 	add	a,c
   0090 5F                 1013 	ld	e,a
   0091 3E 00              1014 	ld	a,#>_hex
   0093 CE 00              1015 	adc	a,#0x00
   0095 57                 1016 	ld	d,a
                           1017 ; genPointerGet
   0096 1A                 1018 	ld	a,(de)
   0097 4F                 1019 	ld	c,a
                           1020 ; genIpush
   0098 79                 1021 	ld	a,c
   0099 F5                 1022 	push	af
   009A 33                 1023 	inc	sp
                           1024 ; genIpush
   009B 21 CC 00           1025 	ld	hl,#__str_3 + 0
   009E E5                 1026 	push	hl
                           1027 ; genCall
   009F CD 00 00           1028 	call	_printf
   00A2 E8 03              1029 	lda	sp,3(sp)
                           1030 ; genGoto
   00A4 C3 B6 00           1031 	jp	00104$
                           1032 ; genLabel
   00A7                    1033 00102$:
                           1034 ;	sound.c 49
                           1035 ; genIpush
                           1036 ; AOP_STK for 
   00A7 F8 04              1037 	lda	hl,4(sp)
   00A9 2A                 1038 	ld	a,(hl+)
   00AA 66                 1039 	ld	h,(hl)
   00AB 6F                 1040 	ld	l,a
   00AC E5                 1041 	push	hl
                           1042 ; genIpush
   00AD 21 CF 00           1043 	ld	hl,#__str_4 + 0
   00B0 E5                 1044 	push	hl
                           1045 ; genCall
   00B1 CD 00 00           1046 	call	_printf
   00B4 E8 04              1047 	lda	sp,4(sp)
                           1048 ; genLabel
   00B6                    1049 00104$:
                           1050 ; genEndFunction
                           1051 	
   00B6 C1                 1052 	pop	bc
   00B7 C9                 1053 	ret
   00B8                    1054 ___printn_end:
   00B8                    1055 _hex:
   00B8 30 31 32 33 34 35  1056 	.ascii "0123456789ABCDEF"
        36 37 38 39 41 42
        43 44 45 46
   00C8 00                 1057 	.db 0x00
   00C9                    1058 __str_2:
   00C9 25 63              1059 	.ascii "%c"
   00CB 00                 1060 	.db 0x00
   00CC                    1061 __str_3:
   00CC 25 63              1062 	.ascii "%c"
   00CE 00                 1063 	.db 0x00
   00CF                    1064 __str_4:
   00CF 25 64              1065 	.ascii "%d"
   00D1 00                 1066 	.db 0x00
                           1067 ;	sound.c 54
                           1068 ; genLabel
                           1069 ; genFunction
                           1070 ;	---------------------------------
                           1071 ; Function println
                           1072 ; ---------------------------------
   00D2                    1073 ___println_start:
   00D2                    1074 _println:
                           1075 	
                           1076 ;	sound.c 55
                           1077 ; genIpush
                           1078 ; AOP_STK for 
   00D2 F8 05              1079 	lda	hl,5(sp)
   00D4 7E                 1080 	ld	a,(hl)
   00D5 F5                 1081 	push	af
   00D6 33                 1082 	inc	sp
                           1083 ; genIpush
                           1084 ; AOP_STK for 
   00D7 2B                 1085 	dec	hl
   00D8 7E                 1086 	ld	a,(hl)
   00D9 F5                 1087 	push	af
   00DA 33                 1088 	inc	sp
                           1089 ; genIpush
                           1090 ; AOP_STK for 
   00DB 2B                 1091 	dec	hl
   00DC 2B                 1092 	dec	hl
   00DD 2A                 1093 	ld	a,(hl+)
   00DE 66                 1094 	ld	h,(hl)
   00DF 6F                 1095 	ld	l,a
   00E0 E5                 1096 	push	hl
                           1097 ; genCall
   00E1 CD 4C 00           1098 	call	_printn
   00E4 E8 04              1099 	lda	sp,4(sp)
                           1100 ;	sound.c 56
                           1101 ; genIpush
   00E6 21 F0 00           1102 	ld	hl,#__str_6 + 0
   00E9 E5                 1103 	push	hl
                           1104 ; genCall
   00EA CD 00 00           1105 	call	_printf
   00ED E8 02              1106 	lda	sp,2(sp)
                           1107 ; genLabel
   00EF                    1108 00101$:
                           1109 ; genEndFunction
                           1110 	
   00EF C9                 1111 	ret
   00F0                    1112 ___println_end:
   00F0                    1113 __str_6:
   00F0 0A                 1114 	.db 0x0A
   00F1 00                 1115 	.db 0x00
                           1116 ;	sound.c 323
                           1117 ; genLabel
                           1118 ; genFunction
                           1119 ;	---------------------------------
                           1120 ; Function NR10
                           1121 ; ---------------------------------
   00F2                    1122 ___NR10_start:
   00F2                    1123 _NR10:
   00F2 C5                 1124 	push	bc
   00F3 E8 FE              1125 	lda	sp,-2(sp)
                           1126 ;	sound.c 324
                           1127 ; genAssign
                           1128 ; AOP_HL for _soundReg
   00F5 21 0E 00           1129 	ld	hl,#_soundReg + 0
   00F8 5E                 1130 	ld	e,(hl)
   00F9 23                 1131 	inc	hl
   00FA 56                 1132 	ld	d,(hl)
                           1133 ; genPointerGet
                           1134 ; AOP_STK for _NR10_sloc0_1_0
                           1135 ; Removed redundent load
                           1136 ; Removed redundent load
   00FB 1A                 1137 	ld	a,(de)
   00FC F8 00              1138 	lda	hl,0(sp)
   00FE 77                 1139 	ld	(hl),a
   00FF 13                 1140 	inc	de
   0100 1A                 1141 	ld	a,(de)
   0101 23                 1142 	inc	hl
   0102 77                 1143 	ld	(hl),a
                           1144 ; genAssign
                           1145 ; AOP_HL for _soundReg
   0103 21 0E 00           1146 	ld	hl,#_soundReg + 0
   0106 4E                 1147 	ld	c,(hl)
   0107 23                 1148 	inc	hl
   0108 46                 1149 	ld	b,(hl)
                           1150 ; genPlus
                           1151 ; genPlusIncr
   0109 59                 1152 	ld	e,c
   010A 50                 1153 	ld	d,b
   010B 13                 1154 	inc	de
   010C 13                 1155 	inc	de
                           1156 ; genPointerGet
                           1157 ; Removed redundent load
                           1158 ; Removed redundent load
   010D 1A                 1159 	ld	a,(de)
   010E 4F                 1160 	ld	c,a
   010F 13                 1161 	inc	de
   0110 1A                 1162 	ld	a,(de)
   0111 47                 1163 	ld	b,a
                           1164 ; genLeftShift
   0112 3E 04              1165 	ld	a,#0x03+1
   0114 18 05              1166 	jr	00104$
   0116                    1167 00103$:
   0116 B7                 1168 	or	a,a
   0117 CB 11              1169 	rl	c
   0119 CB 10              1170 	rl	b
   011B                    1171 00104$:
   011B 3D                 1172 	dec	a
   011C 20 F8              1173 	jr	nz,00103$
                           1174 ; genOr
                           1175 ; AOP_STK for _NR10_sloc0_1_0
                           1176 ; Type res[5] = l[5]&r[2]
                           1177 ; Size res[2] = l[2]&r[2]
   011E F8 00              1178 	lda	hl,0(sp)
   0120 7E                 1179 	ld	a,(hl)
   0121 B1                 1180 	or	a,c
   0122 22                 1181 	ld	(hl+),a
   0123 7E                 1182 	ld	a,(hl)
   0124 B0                 1183 	or	a,b
   0125 77                 1184 	ld	(hl),a
                           1185 ; genAssign
                           1186 ; AOP_HL for _soundReg
   0126 21 0E 00           1187 	ld	hl,#_soundReg + 0
   0129 4E                 1188 	ld	c,(hl)
   012A 23                 1189 	inc	hl
   012B 46                 1190 	ld	b,(hl)
                           1191 ; genPlus
                           1192 ; genPlusIncr
                           1193 ;	genPlusIncr failed
   012C 79                 1194 	ld	a,c
   012D C6 04              1195 	add	a,#0x04
   012F 5F                 1196 	ld	e,a
   0130 78                 1197 	ld	a,b
   0131 CE 00              1198 	adc	a,#0x00
   0133 57                 1199 	ld	d,a
                           1200 ; genPointerGet
                           1201 ; Removed redundent load
                           1202 ; Removed redundent load
   0134 1A                 1203 	ld	a,(de)
   0135 4F                 1204 	ld	c,a
   0136 13                 1205 	inc	de
   0137 1A                 1206 	ld	a,(de)
   0138 47                 1207 	ld	b,a
                           1208 ; genLeftShift
   0139 3E 05              1209 	ld	a,#0x04+1
   013B 18 05              1210 	jr	00106$
   013D                    1211 00105$:
   013D B7                 1212 	or	a,a
   013E CB 11              1213 	rl	c
   0140 CB 10              1214 	rl	b
   0142                    1215 00106$:
   0142 3D                 1216 	dec	a
   0143 20 F8              1217 	jr	nz,00105$
                           1218 ; genOr
                           1219 ; AOP_STK for _NR10_sloc0_1_0
                           1220 ; Type res[2] = l[5]&r[2]
                           1221 ; Size res[2] = l[2]&r[2]
   0145 79                 1222 	ld	a,c
   0146 F8 00              1223 	lda	hl,0(sp)
   0148 B6                 1224 	or	a,(hl)
   0149 4F                 1225 	ld	c,a
   014A 78                 1226 	ld	a,b
   014B 23                 1227 	inc	hl
   014C B6                 1228 	or	a,(hl)
   014D 47                 1229 	ld	b,a
                           1230 ; genCast
                           1231 ; Removed redundent load
                           1232 ; genRet
   014E 59                 1233 	ld	e,c
                           1234 ; genLabel
   014F                    1235 00101$:
                           1236 ; genEndFunction
   014F E8 02              1237 	lda	sp,2(sp)
   0151 C1                 1238 	pop	bc
   0152 C9                 1239 	ret
   0153                    1240 ___NR10_end:
   0153                    1241 _frequencies:
   0153 2C 00              1242 	.dw #0x002C
   0155 9C 00              1243 	.dw #0x009C
   0157 06 01              1244 	.dw #0x0106
   0159 6B 01              1245 	.dw #0x016B
   015B C9 01              1246 	.dw #0x01C9
   015D 23 02              1247 	.dw #0x0223
   015F 77 02              1248 	.dw #0x0277
   0161 C6 02              1249 	.dw #0x02C6
   0163 12 03              1250 	.dw #0x0312
   0165 56 03              1251 	.dw #0x0356
   0167 9B 03              1252 	.dw #0x039B
   0169 DA 03              1253 	.dw #0x03DA
   016B 16 04              1254 	.dw #0x0416
   016D 4E 04              1255 	.dw #0x044E
   016F 83 04              1256 	.dw #0x0483
   0171 B5 04              1257 	.dw #0x04B5
   0173 E5 04              1258 	.dw #0x04E5
   0175 11 05              1259 	.dw #0x0511
   0177 3B 05              1260 	.dw #0x053B
   0179 63 05              1261 	.dw #0x0563
   017B 89 05              1262 	.dw #0x0589
   017D AC 05              1263 	.dw #0x05AC
   017F CE 05              1264 	.dw #0x05CE
   0181 ED 05              1265 	.dw #0x05ED
   0183 0A 06              1266 	.dw #0x060A
   0185 27 06              1267 	.dw #0x0627
   0187 42 06              1268 	.dw #0x0642
   0189 5B 06              1269 	.dw #0x065B
   018B 72 06              1270 	.dw #0x0672
   018D 89 06              1271 	.dw #0x0689
   018F 9E 06              1272 	.dw #0x069E
   0191 B2 06              1273 	.dw #0x06B2
   0193 C4 06              1274 	.dw #0x06C4
   0195 D6 06              1275 	.dw #0x06D6
   0197 E7 06              1276 	.dw #0x06E7
   0199 F7 06              1277 	.dw #0x06F7
   019B 06 07              1278 	.dw #0x0706
   019D 14 07              1279 	.dw #0x0714
   019F 21 07              1280 	.dw #0x0721
   01A1 2D 07              1281 	.dw #0x072D
   01A3 39 07              1282 	.dw #0x0739
   01A5 44 07              1283 	.dw #0x0744
   01A7 4F 07              1284 	.dw #0x074F
   01A9 59 07              1285 	.dw #0x0759
   01AB 62 07              1286 	.dw #0x0762
   01AD 6B 07              1287 	.dw #0x076B
   01AF 73 07              1288 	.dw #0x0773
   01B1 7B 07              1289 	.dw #0x077B
   01B3 83 07              1290 	.dw #0x0783
   01B5 8A 07              1291 	.dw #0x078A
   01B7 90 07              1292 	.dw #0x0790
   01B9 97 07              1293 	.dw #0x0797
   01BB 9D 07              1294 	.dw #0x079D
   01BD A2 07              1295 	.dw #0x07A2
   01BF A7 07              1296 	.dw #0x07A7
   01C1 AC 07              1297 	.dw #0x07AC
   01C3 B1 07              1298 	.dw #0x07B1
   01C5 B6 07              1299 	.dw #0x07B6
   01C7 BA 07              1300 	.dw #0x07BA
   01C9 BE 07              1301 	.dw #0x07BE
   01CB C1 07              1302 	.dw #0x07C1
   01CD C4 07              1303 	.dw #0x07C4
   01CF C8 07              1304 	.dw #0x07C8
   01D1 CB 07              1305 	.dw #0x07CB
   01D3 CE 07              1306 	.dw #0x07CE
   01D5 D1 07              1307 	.dw #0x07D1
   01D7 D4 07              1308 	.dw #0x07D4
   01D9 D6 07              1309 	.dw #0x07D6
   01DB D9 07              1310 	.dw #0x07D9
   01DD DB 07              1311 	.dw #0x07DB
   01DF DD 07              1312 	.dw #0x07DD
   01E1 DF 07              1313 	.dw #0x07DF
   01E3                    1314 _music:
   01E3 24                 1315 	.db #0x24
   01E4 24                 1316 	.db #0x24
   01E5 2B                 1317 	.db #0x2B
   01E6 2B                 1318 	.db #0x2B
   01E7 2D                 1319 	.db #0x2D
   01E8 2D                 1320 	.db #0x2D
   01E9 2B                 1321 	.db #0x2B
   01EA 48                 1322 	.db #0x48
   01EB 29                 1323 	.db #0x29
   01EC 29                 1324 	.db #0x29
   01ED 28                 1325 	.db #0x28
   01EE 28                 1326 	.db #0x28
   01EF 26                 1327 	.db #0x26
   01F0 26                 1328 	.db #0x26
   01F1 24                 1329 	.db #0x24
   01F2 48                 1330 	.db #0x48
   01F3 2B                 1331 	.db #0x2B
   01F4 2B                 1332 	.db #0x2B
   01F5 29                 1333 	.db #0x29
   01F6 29                 1334 	.db #0x29
   01F7 28                 1335 	.db #0x28
   01F8 28                 1336 	.db #0x28
   01F9 26                 1337 	.db #0x26
   01FA 26                 1338 	.db #0x26
   01FB 2B                 1339 	.db #0x2B
   01FC 2B                 1340 	.db #0x2B
   01FD 29                 1341 	.db #0x29
   01FE 29                 1342 	.db #0x29
   01FF 28                 1343 	.db #0x28
   0200 28                 1344 	.db #0x28
   0201 26                 1345 	.db #0x26
   0202 26                 1346 	.db #0x26
   0203 24                 1347 	.db #0x24
   0204 24                 1348 	.db #0x24
   0205 2B                 1349 	.db #0x2B
   0206 2B                 1350 	.db #0x2B
   0207 2D                 1351 	.db #0x2D
   0208 2D                 1352 	.db #0x2D
   0209 2B                 1353 	.db #0x2B
   020A 48                 1354 	.db #0x48
   020B 29                 1355 	.db #0x29
   020C 29                 1356 	.db #0x29
   020D 28                 1357 	.db #0x28
   020E 28                 1358 	.db #0x28
   020F 26                 1359 	.db #0x26
   0210 26                 1360 	.db #0x26
   0211 24                 1361 	.db #0x24
   0212 48                 1362 	.db #0x48
   0213 49                 1363 	.db #0x49
   0214                    1364 _params_0:
   0214 F8 02              1365 	.dw _str_7
   0216 00 00              1366 	.dw #0x0000
   0218 06 03              1367 	.dw _str_8
   021A 01 00              1368 	.dw #0x0001
   021C 11 03              1369 	.dw _str_9
   021E 01 00              1370 	.dw #0x0001
   0220 1A 03              1371 	.dw _str_10
   0222 01 00              1372 	.dw #0x0001
   0224 23 03              1373 	.dw _str_11
   0226 07 00              1374 	.dw #0x0007
   0228 2E 03              1375 	.dw _str_12
   022A 07 00              1376 	.dw #0x0007
   022C 00 00              1377 	.dw #0x0000
   022E 00 00              1378 	.dw #0x0000
   0230                    1379 _params_1:
   0230 39 03              1380 	.dw _str_13
   0232 00 00              1381 	.dw #0x0000
   0234 47 03              1382 	.dw _str_14
   0236 07 00              1383 	.dw #0x0007
   0238 50 03              1384 	.dw _str_15
   023A 01 00              1385 	.dw #0x0001
   023C 59 03              1386 	.dw _str_16
   023E 07 00              1387 	.dw #0x0007
   0240 64 03              1388 	.dw _str_17
   0242 03 00              1389 	.dw #0x0003
   0244 6D 03              1390 	.dw _str_18
   0246 3F 00              1391 	.dw #0x003F
   0248 77 03              1392 	.dw _str_19
   024A 0F 00              1393 	.dw #0x000F
   024C 80 03              1394 	.dw _str_20
   024E 01 00              1395 	.dw #0x0001
   0250 89 03              1396 	.dw _str_21
   0252 07 00              1397 	.dw #0x0007
   0254 94 03              1398 	.dw _str_22
   0256 FF 07              1399 	.dw #0x07FF
   0258 9E 03              1400 	.dw _str_23
   025A 01 00              1401 	.dw #0x0001
   025C A7 03              1402 	.dw _str_24
   025E 01 00              1403 	.dw #0x0001
   0260 B2 03              1404 	.dw _str_25
   0262 01 00              1405 	.dw #0x0001
   0264 BD 03              1406 	.dw _str_26
   0266 01 00              1407 	.dw #0x0001
   0268 00 00              1408 	.dw #0x0000
   026A 00 00              1409 	.dw #0x0000
   026C                    1410 _params_2:
   026C C4 03              1411 	.dw _str_27
   026E 00 00              1412 	.dw #0x0000
   0270 D2 03              1413 	.dw _str_28
   0272 03 00              1414 	.dw #0x0003
   0274 DB 03              1415 	.dw _str_29
   0276 3F 00              1416 	.dw #0x003F
   0278 E5 03              1417 	.dw _str_30
   027A 0F 00              1418 	.dw #0x000F
   027C EE 03              1419 	.dw _str_31
   027E 01 00              1420 	.dw #0x0001
   0280 F7 03              1421 	.dw _str_32
   0282 07 00              1422 	.dw #0x0007
   0284 03 04              1423 	.dw _str_33
   0286 FF 07              1424 	.dw #0x07FF
   0288 0D 04              1425 	.dw _str_34
   028A 01 00              1426 	.dw #0x0001
   028C 16 04              1427 	.dw _str_35
   028E 01 00              1428 	.dw #0x0001
   0290 21 04              1429 	.dw _str_36
   0292 01 00              1430 	.dw #0x0001
   0294 2C 04              1431 	.dw _str_37
   0296 01 00              1432 	.dw #0x0001
   0298 00 00              1433 	.dw #0x0000
   029A 00 00              1434 	.dw #0x0000
   029C                    1435 _params_3:
   029C 33 04              1436 	.dw _str_38
   029E 00 00              1437 	.dw #0x0000
   02A0 41 04              1438 	.dw _str_39
   02A2 01 00              1439 	.dw #0x0001
   02A4 4E 04              1440 	.dw _str_40
   02A6 FF 00              1441 	.dw #0x00FF
   02A8 58 04              1442 	.dw _str_41
   02AA 03 00              1443 	.dw #0x0003
   02AC 66 04              1444 	.dw _str_42
   02AE FF 07              1445 	.dw #0x07FF
   02B0 70 04              1446 	.dw _str_43
   02B2 01 00              1447 	.dw #0x0001
   02B4 79 04              1448 	.dw _str_44
   02B6 01 00              1449 	.dw #0x0001
   02B8 84 04              1450 	.dw _str_45
   02BA 01 00              1451 	.dw #0x0001
   02BC 8F 04              1452 	.dw _str_46
   02BE 01 00              1453 	.dw #0x0001
   02C0 00 00              1454 	.dw #0x0000
   02C2 00 00              1455 	.dw #0x0000
   02C4                    1456 _params_4:
   02C4 96 04              1457 	.dw _str_47
   02C6 00 00              1458 	.dw #0x0000
   02C8 A4 04              1459 	.dw _str_48
   02CA 3F 00              1460 	.dw #0x003F
   02CC AE 04              1461 	.dw _str_49
   02CE 0F 00              1462 	.dw #0x000F
   02D0 B7 04              1463 	.dw _str_50
   02D2 01 00              1464 	.dw #0x0001
   02D4 C0 04              1465 	.dw _str_51
   02D6 07 00              1466 	.dw #0x0007
   02D8 CC 04              1467 	.dw _str_52
   02DA 0F 00              1468 	.dw #0x000F
   02DC DA 04              1469 	.dw _str_53
   02DE 01 00              1470 	.dw #0x0001
   02E0 E8 04              1471 	.dw _str_54
   02E2 07 00              1472 	.dw #0x0007
   02E4 F5 04              1473 	.dw _str_55
   02E6 01 00              1474 	.dw #0x0001
   02E8 FE 04              1475 	.dw _str_56
   02EA 01 00              1476 	.dw #0x0001
   02EC 09 05              1477 	.dw _str_57
   02EE 01 00              1478 	.dw #0x0001
   02F0 14 05              1479 	.dw _str_58
   02F2 01 00              1480 	.dw #0x0001
   02F4 00 00              1481 	.dw #0x0000
   02F6 00 00              1482 	.dw #0x0000
   02F8                    1483 _str_7:
   02F8 4D 61 69 6E 20 43  1484 	.ascii "Main Controls"
        6F 6E 74 72 6F 6C
        73
   0305 00                 1485 	.db 0x00
   0306                    1486 _str_8:
   0306 41 6C 6C 20 4F 6E  1487 	.ascii "All On/Off"
        2F 4F 66 66
   0310 00                 1488 	.db 0x00
   0311                    1489 _str_9:
   0311 56 69 6E 2D 3E 53  1490 	.ascii "Vin->SO1"
        4F 31
   0319 00                 1491 	.db 0x00
   031A                    1492 _str_10:
   031A 56 69 6E 2D 3E 53  1493 	.ascii "Vin->SO2"
        4F 32
   0322 00                 1494 	.db 0x00
   0323                    1495 _str_11:
   0323 53 4F 31 20 56 6F  1496 	.ascii "SO1 Volume"
        6C 75 6D 65
   032D 00                 1497 	.db 0x00
   032E                    1498 _str_12:
   032E 53 4F 32 20 56 6F  1499 	.ascii "SO2 Volume"
        6C 75 6D 65
   0338 00                 1500 	.db 0x00
   0339                    1501 _str_13:
   0339 53 6F 75 6E 64 20  1502 	.ascii "Sound Mode #1"
        4D 6F 64 65 20 23
        31
   0346 00                 1503 	.db 0x00
   0347                    1504 _str_14:
   0347 53 77 70 20 54 69  1505 	.ascii "Swp Time"
        6D 65
   034F 00                 1506 	.db 0x00
   0350                    1507 _str_15:
   0350 53 77 70 20 4D 6F  1508 	.ascii "Swp Mode"
        64 65
   0358 00                 1509 	.db 0x00
   0359                    1510 _str_16:
   0359 53 77 70 20 53 68  1511 	.ascii "Swp Shifts"
        69 66 74 73
   0363 00                 1512 	.db 0x00
   0364                    1513 _str_17:
   0364 50 61 74 20 44 75  1514 	.ascii "Pat Duty"
        74 79
   036C 00                 1515 	.db 0x00
   036D                    1516 _str_18:
   036D 53 6F 75 6E 64 20  1517 	.ascii "Sound Len"
        4C 65 6E
   0376 00                 1518 	.db 0x00
   0377                    1519 _str_19:
   0377 45 6E 76 20 49 6E  1520 	.ascii "Env Init"
        69 74
   037F 00                 1521 	.db 0x00
   0380                    1522 _str_20:
   0380 45 6E 76 20 4D 6F  1523 	.ascii "Env Mode"
        64 65
   0388 00                 1524 	.db 0x00
   0389                    1525 _str_21:
   0389 45 6E 76 20 4E 62  1526 	.ascii "Env Nb Swp"
        20 53 77 70
   0393 00                 1527 	.db 0x00
   0394                    1528 _str_22:
   0394 46 72 65 71 75 65  1529 	.ascii "Frequency"
        6E 63 79
   039D 00                 1530 	.db 0x00
   039E                    1531 _str_23:
   039E 43 6F 6E 73 20 53  1532 	.ascii "Cons Sel"
        65 6C
   03A6 00                 1533 	.db 0x00
   03A7                    1534 _str_24:
   03A7 4F 75 74 20 74 6F  1535 	.ascii "Out to SO1"
        20 53 4F 31
   03B1 00                 1536 	.db 0x00
   03B2                    1537 _str_25:
   03B2 4F 75 74 20 74 6F  1538 	.ascii "Out to SO2"
        20 53 4F 32
   03BC 00                 1539 	.db 0x00
   03BD                    1540 _str_26:
   03BD 4F 6E 2F 4F 66 66  1541 	.ascii "On/Off"
   03C3 00                 1542 	.db 0x00
   03C4                    1543 _str_27:
   03C4 53 6F 75 6E 64 20  1544 	.ascii "Sound Mode #2"
        4D 6F 64 65 20 23
        32
   03D1 00                 1545 	.db 0x00
   03D2                    1546 _str_28:
   03D2 50 61 74 20 44 75  1547 	.ascii "Pat Duty"
        74 79
   03DA 00                 1548 	.db 0x00
   03DB                    1549 _str_29:
   03DB 53 6F 75 6E 64 20  1550 	.ascii "Sound Len"
        4C 65 6E
   03E4 00                 1551 	.db 0x00
   03E5                    1552 _str_30:
   03E5 45 6E 76 20 49 6E  1553 	.ascii "Env Init"
        69 74
   03ED 00                 1554 	.db 0x00
   03EE                    1555 _str_31:
   03EE 45 6E 76 20 4D 6F  1556 	.ascii "Env Mode"
        64 65
   03F6 00                 1557 	.db 0x00
   03F7                    1558 _str_32:
   03F7 45 6E 76 20 4E 62  1559 	.ascii "Env Nb Step"
        20 53 74 65 70
   0402 00                 1560 	.db 0x00
   0403                    1561 _str_33:
   0403 46 72 65 71 75 65  1562 	.ascii "Frequency"
        6E 63 79
   040C 00                 1563 	.db 0x00
   040D                    1564 _str_34:
   040D 43 6F 6E 73 20 53  1565 	.ascii "Cons Sel"
        65 6C
   0415 00                 1566 	.db 0x00
   0416                    1567 _str_35:
   0416 4F 75 74 20 74 6F  1568 	.ascii "Out to SO1"
        20 53 4F 31
   0420 00                 1569 	.db 0x00
   0421                    1570 _str_36:
   0421 4F 75 74 20 74 6F  1571 	.ascii "Out to SO2"
        20 53 4F 32
   042B 00                 1572 	.db 0x00
   042C                    1573 _str_37:
   042C 4F 6E 2F 4F 66 66  1574 	.ascii "On/Off"
   0432 00                 1575 	.db 0x00
   0433                    1576 _str_38:
   0433 53 6F 75 6E 64 20  1577 	.ascii "Sound Mode #3"
        4D 6F 64 65 20 23
        33
   0440 00                 1578 	.db 0x00
   0441                    1579 _str_39:
   0441 53 6F 75 6E 64 20  1580 	.ascii "Sound On/Off"
        4F 6E 2F 4F 66 66
   044D 00                 1581 	.db 0x00
   044E                    1582 _str_40:
   044E 53 6F 75 6E 64 20  1583 	.ascii "Sound Len"
        4C 65 6E
   0457 00                 1584 	.db 0x00
   0458                    1585 _str_41:
   0458 53 65 6C 20 4F 75  1586 	.ascii "Sel Out Level"
        74 20 4C 65 76 65
        6C
   0465 00                 1587 	.db 0x00
   0466                    1588 _str_42:
   0466 46 72 65 71 75 65  1589 	.ascii "Frequency"
        6E 63 79
   046F 00                 1590 	.db 0x00
   0470                    1591 _str_43:
   0470 43 6F 6E 73 20 53  1592 	.ascii "Cons Sel"
        65 6C
   0478 00                 1593 	.db 0x00
   0479                    1594 _str_44:
   0479 4F 75 74 20 74 6F  1595 	.ascii "Out to SO1"
        20 53 4F 31
   0483 00                 1596 	.db 0x00
   0484                    1597 _str_45:
   0484 4F 75 74 20 74 6F  1598 	.ascii "Out to SO2"
        20 53 4F 32
   048E 00                 1599 	.db 0x00
   048F                    1600 _str_46:
   048F 4F 6E 2F 4F 66 66  1601 	.ascii "On/Off"
   0495 00                 1602 	.db 0x00
   0496                    1603 _str_47:
   0496 53 6F 75 6E 64 20  1604 	.ascii "Sound Mode #4"
        4D 6F 64 65 20 23
        34
   04A3 00                 1605 	.db 0x00
   04A4                    1606 _str_48:
   04A4 53 6F 75 6E 64 20  1607 	.ascii "Sound Len"
        4C 65 6E
   04AD 00                 1608 	.db 0x00
   04AE                    1609 _str_49:
   04AE 45 6E 76 20 49 6E  1610 	.ascii "Env Init"
        69 74
   04B6 00                 1611 	.db 0x00
   04B7                    1612 _str_50:
   04B7 45 6E 76 20 4D 6F  1613 	.ascii "Env Mode"
        64 65
   04BF 00                 1614 	.db 0x00
   04C0                    1615 _str_51:
   04C0 45 6E 76 20 4E 62  1616 	.ascii "Env Nb Step"
        20 53 74 65 70
   04CB 00                 1617 	.db 0x00
   04CC                    1618 _str_52:
   04CC 50 6F 6C 79 20 43  1619 	.ascii "Poly Cnt Freq"
        6E 74 20 46 72 65
        71
   04D9 00                 1620 	.db 0x00
   04DA                    1621 _str_53:
   04DA 50 6F 6C 79 20 43  1622 	.ascii "Poly Cnt Step"
        6E 74 20 53 74 65
        70
   04E7 00                 1623 	.db 0x00
   04E8                    1624 _str_54:
   04E8 50 6F 6C 79 20 43  1625 	.ascii "Poly Cnt Div"
        6E 74 20 44 69 76
   04F4 00                 1626 	.db 0x00
   04F5                    1627 _str_55:
   04F5 43 6F 6E 73 20 53  1628 	.ascii "Cons Sel"
        65 6C
   04FD 00                 1629 	.db 0x00
   04FE                    1630 _str_56:
   04FE 4F 75 74 20 74 6F  1631 	.ascii "Out to SO1"
        20 53 4F 31
   0508 00                 1632 	.db 0x00
   0509                    1633 _str_57:
   0509 4F 75 74 20 74 6F  1634 	.ascii "Out to SO2"
        20 53 4F 32
   0513 00                 1635 	.db 0x00
   0514                    1636 _str_58:
   0514 4F 6E 2F 4F 66 66  1637 	.ascii "On/Off"
   051A 00                 1638 	.db 0x00
                           1639 ;	sound.c 327
                           1640 ; genLabel
                           1641 ; genFunction
                           1642 ;	---------------------------------
                           1643 ; Function NR11
                           1644 ; ---------------------------------
   051B                    1645 ___NR11_start:
   051B                    1646 _NR11:
   051B C5                 1647 	push	bc
   051C E8 FE              1648 	lda	sp,-2(sp)
                           1649 ;	sound.c 328
                           1650 ; genAssign
                           1651 ; AOP_HL for _soundReg
   051E 21 0E 00           1652 	ld	hl,#_soundReg + 0
   0521 4E                 1653 	ld	c,(hl)
   0522 23                 1654 	inc	hl
   0523 46                 1655 	ld	b,(hl)
                           1656 ; genPlus
                           1657 ; genPlusIncr
                           1658 ;	genPlusIncr failed
   0524 79                 1659 	ld	a,c
   0525 C6 08              1660 	add	a,#0x08
   0527 5F                 1661 	ld	e,a
   0528 78                 1662 	ld	a,b
   0529 CE 00              1663 	adc	a,#0x00
   052B 57                 1664 	ld	d,a
                           1665 ; genPointerGet
                           1666 ; AOP_STK for _NR11_sloc0_1_0
                           1667 ; Removed redundent load
                           1668 ; Removed redundent load
   052C 1A                 1669 	ld	a,(de)
   052D F8 00              1670 	lda	hl,0(sp)
   052F 77                 1671 	ld	(hl),a
   0530 13                 1672 	inc	de
   0531 1A                 1673 	ld	a,(de)
   0532 23                 1674 	inc	hl
   0533 77                 1675 	ld	(hl),a
                           1676 ; genAssign
                           1677 ; AOP_HL for _soundReg
   0534 21 0E 00           1678 	ld	hl,#_soundReg + 0
   0537 4E                 1679 	ld	c,(hl)
   0538 23                 1680 	inc	hl
   0539 46                 1681 	ld	b,(hl)
                           1682 ; genPlus
                           1683 ; genPlusIncr
                           1684 ;	genPlusIncr failed
   053A 79                 1685 	ld	a,c
   053B C6 0A              1686 	add	a,#0x0A
   053D 5F                 1687 	ld	e,a
   053E 78                 1688 	ld	a,b
   053F CE 00              1689 	adc	a,#0x00
   0541 57                 1690 	ld	d,a
                           1691 ; genPointerGet
                           1692 ; Removed redundent load
                           1693 ; Removed redundent load
   0542 1A                 1694 	ld	a,(de)
   0543 4F                 1695 	ld	c,a
   0544 13                 1696 	inc	de
   0545 1A                 1697 	ld	a,(de)
   0546 47                 1698 	ld	b,a
                           1699 ; genLeftShift
   0547 3E 07              1700 	ld	a,#0x06+1
   0549 18 05              1701 	jr	00104$
   054B                    1702 00103$:
   054B B7                 1703 	or	a,a
   054C CB 11              1704 	rl	c
   054E CB 10              1705 	rl	b
   0550                    1706 00104$:
   0550 3D                 1707 	dec	a
   0551 20 F8              1708 	jr	nz,00103$
                           1709 ; genOr
                           1710 ; AOP_STK for _NR11_sloc0_1_0
                           1711 ; Type res[2] = l[5]&r[2]
                           1712 ; Size res[2] = l[2]&r[2]
   0553 79                 1713 	ld	a,c
   0554 F8 00              1714 	lda	hl,0(sp)
   0556 B6                 1715 	or	a,(hl)
   0557 4F                 1716 	ld	c,a
   0558 78                 1717 	ld	a,b
   0559 23                 1718 	inc	hl
   055A B6                 1719 	or	a,(hl)
   055B 47                 1720 	ld	b,a
                           1721 ; genCast
                           1722 ; Removed redundent load
                           1723 ; genRet
   055C 59                 1724 	ld	e,c
                           1725 ; genLabel
   055D                    1726 00101$:
                           1727 ; genEndFunction
   055D E8 02              1728 	lda	sp,2(sp)
   055F C1                 1729 	pop	bc
   0560 C9                 1730 	ret
   0561                    1731 ___NR11_end:
                           1732 ;	sound.c 331
                           1733 ; genLabel
                           1734 ; genFunction
                           1735 ;	---------------------------------
                           1736 ; Function NR12
                           1737 ; ---------------------------------
   0561                    1738 ___NR12_start:
   0561                    1739 _NR12:
   0561 C5                 1740 	push	bc
   0562 E8 FE              1741 	lda	sp,-2(sp)
                           1742 ;	sound.c 332
                           1743 ; genAssign
                           1744 ; AOP_HL for _soundReg
   0564 21 0E 00           1745 	ld	hl,#_soundReg + 0
   0567 4E                 1746 	ld	c,(hl)
   0568 23                 1747 	inc	hl
   0569 46                 1748 	ld	b,(hl)
                           1749 ; genPlus
                           1750 ; genPlusIncr
                           1751 ;	genPlusIncr failed
   056A 79                 1752 	ld	a,c
   056B C6 0C              1753 	add	a,#0x0C
   056D 5F                 1754 	ld	e,a
   056E 78                 1755 	ld	a,b
   056F CE 00              1756 	adc	a,#0x00
   0571 57                 1757 	ld	d,a
                           1758 ; genPointerGet
                           1759 ; AOP_STK for _NR12_sloc0_1_0
                           1760 ; Removed redundent load
                           1761 ; Removed redundent load
   0572 1A                 1762 	ld	a,(de)
   0573 F8 00              1763 	lda	hl,0(sp)
   0575 77                 1764 	ld	(hl),a
   0576 13                 1765 	inc	de
   0577 1A                 1766 	ld	a,(de)
   0578 23                 1767 	inc	hl
   0579 77                 1768 	ld	(hl),a
                           1769 ; genAssign
                           1770 ; AOP_HL for _soundReg
   057A 21 0E 00           1771 	ld	hl,#_soundReg + 0
   057D 4E                 1772 	ld	c,(hl)
   057E 23                 1773 	inc	hl
   057F 46                 1774 	ld	b,(hl)
                           1775 ; genPlus
                           1776 ; genPlusIncr
                           1777 ;	genPlusIncr failed
   0580 79                 1778 	ld	a,c
   0581 C6 0E              1779 	add	a,#0x0E
   0583 5F                 1780 	ld	e,a
   0584 78                 1781 	ld	a,b
   0585 CE 00              1782 	adc	a,#0x00
   0587 57                 1783 	ld	d,a
                           1784 ; genPointerGet
                           1785 ; Removed redundent load
                           1786 ; Removed redundent load
   0588 1A                 1787 	ld	a,(de)
   0589 4F                 1788 	ld	c,a
   058A 13                 1789 	inc	de
   058B 1A                 1790 	ld	a,(de)
   058C 47                 1791 	ld	b,a
                           1792 ; genLeftShift
   058D 3E 04              1793 	ld	a,#0x03+1
   058F 18 05              1794 	jr	00104$
   0591                    1795 00103$:
   0591 B7                 1796 	or	a,a
   0592 CB 11              1797 	rl	c
   0594 CB 10              1798 	rl	b
   0596                    1799 00104$:
   0596 3D                 1800 	dec	a
   0597 20 F8              1801 	jr	nz,00103$
                           1802 ; genOr
                           1803 ; AOP_STK for _NR12_sloc0_1_0
                           1804 ; Type res[5] = l[5]&r[2]
                           1805 ; Size res[2] = l[2]&r[2]
   0599 F8 00              1806 	lda	hl,0(sp)
   059B 7E                 1807 	ld	a,(hl)
   059C B1                 1808 	or	a,c
   059D 22                 1809 	ld	(hl+),a
   059E 7E                 1810 	ld	a,(hl)
   059F B0                 1811 	or	a,b
   05A0 77                 1812 	ld	(hl),a
                           1813 ; genAssign
                           1814 ; AOP_HL for _soundReg
   05A1 21 0E 00           1815 	ld	hl,#_soundReg + 0
   05A4 4E                 1816 	ld	c,(hl)
   05A5 23                 1817 	inc	hl
   05A6 46                 1818 	ld	b,(hl)
                           1819 ; genPlus
                           1820 ; genPlusIncr
                           1821 ;	genPlusIncr failed
   05A7 79                 1822 	ld	a,c
   05A8 C6 10              1823 	add	a,#0x10
   05AA 5F                 1824 	ld	e,a
   05AB 78                 1825 	ld	a,b
   05AC CE 00              1826 	adc	a,#0x00
   05AE 57                 1827 	ld	d,a
                           1828 ; genPointerGet
                           1829 ; Removed redundent load
                           1830 ; Removed redundent load
   05AF 1A                 1831 	ld	a,(de)
   05B0 4F                 1832 	ld	c,a
   05B1 13                 1833 	inc	de
   05B2 1A                 1834 	ld	a,(de)
   05B3 47                 1835 	ld	b,a
                           1836 ; genLeftShift
   05B4 3E 05              1837 	ld	a,#0x04+1
   05B6 18 05              1838 	jr	00106$
   05B8                    1839 00105$:
   05B8 B7                 1840 	or	a,a
   05B9 CB 11              1841 	rl	c
   05BB CB 10              1842 	rl	b
   05BD                    1843 00106$:
   05BD 3D                 1844 	dec	a
   05BE 20 F8              1845 	jr	nz,00105$
                           1846 ; genOr
                           1847 ; AOP_STK for _NR12_sloc0_1_0
                           1848 ; Type res[2] = l[5]&r[2]
                           1849 ; Size res[2] = l[2]&r[2]
   05C0 79                 1850 	ld	a,c
   05C1 F8 00              1851 	lda	hl,0(sp)
   05C3 B6                 1852 	or	a,(hl)
   05C4 4F                 1853 	ld	c,a
   05C5 78                 1854 	ld	a,b
   05C6 23                 1855 	inc	hl
   05C7 B6                 1856 	or	a,(hl)
   05C8 47                 1857 	ld	b,a
                           1858 ; genCast
                           1859 ; Removed redundent load
                           1860 ; genRet
   05C9 59                 1861 	ld	e,c
                           1862 ; genLabel
   05CA                    1863 00101$:
                           1864 ; genEndFunction
   05CA E8 02              1865 	lda	sp,2(sp)
   05CC C1                 1866 	pop	bc
   05CD C9                 1867 	ret
   05CE                    1868 ___NR12_end:
                           1869 ;	sound.c 335
                           1870 ; genLabel
                           1871 ; genFunction
                           1872 ;	---------------------------------
                           1873 ; Function NR13
                           1874 ; ---------------------------------
   05CE                    1875 ___NR13_start:
   05CE                    1876 _NR13:
   05CE C5                 1877 	push	bc
                           1878 	
                           1879 ;	sound.c 336
                           1880 ; genAssign
                           1881 ; AOP_HL for _soundReg
   05CF 21 0E 00           1882 	ld	hl,#_soundReg + 0
   05D2 4E                 1883 	ld	c,(hl)
   05D3 23                 1884 	inc	hl
   05D4 46                 1885 	ld	b,(hl)
                           1886 ; genPlus
                           1887 ; genPlusIncr
                           1888 ;	genPlusIncr failed
   05D5 79                 1889 	ld	a,c
   05D6 C6 12              1890 	add	a,#0x12
   05D8 5F                 1891 	ld	e,a
   05D9 78                 1892 	ld	a,b
   05DA CE 00              1893 	adc	a,#0x00
   05DC 57                 1894 	ld	d,a
                           1895 ; genPointerGet
                           1896 ; Removed redundent load
                           1897 ; Removed redundent load
   05DD 1A                 1898 	ld	a,(de)
   05DE 4F                 1899 	ld	c,a
   05DF 13                 1900 	inc	de
   05E0 1A                 1901 	ld	a,(de)
   05E1 47                 1902 	ld	b,a
                           1903 ; genCast
                           1904 ; Removed redundent load
                           1905 ; genRet
   05E2 59                 1906 	ld	e,c
                           1907 ; genLabel
   05E3                    1908 00101$:
                           1909 ; genEndFunction
                           1910 	
   05E3 C1                 1911 	pop	bc
   05E4 C9                 1912 	ret
   05E5                    1913 ___NR13_end:
                           1914 ;	sound.c 339
                           1915 ; genLabel
                           1916 ; genFunction
                           1917 ;	---------------------------------
                           1918 ; Function NR14
                           1919 ; ---------------------------------
   05E5                    1920 ___NR14_start:
   05E5                    1921 _NR14:
   05E5 C5                 1922 	push	bc
   05E6 E8 FE              1923 	lda	sp,-2(sp)
                           1924 ;	sound.c 340
                           1925 ; genAssign
                           1926 ; AOP_HL for _soundReg
   05E8 21 0E 00           1927 	ld	hl,#_soundReg + 0
   05EB 4E                 1928 	ld	c,(hl)
   05EC 23                 1929 	inc	hl
   05ED 46                 1930 	ld	b,(hl)
                           1931 ; genPlus
                           1932 ; genPlusIncr
                           1933 ;	genPlusIncr failed
   05EE 79                 1934 	ld	a,c
   05EF C6 14              1935 	add	a,#0x14
   05F1 5F                 1936 	ld	e,a
   05F2 78                 1937 	ld	a,b
   05F3 CE 00              1938 	adc	a,#0x00
   05F5 57                 1939 	ld	d,a
                           1940 ; genPointerGet
                           1941 ; AOP_STK for _NR14_sloc0_1_0
                           1942 ; Removed redundent load
                           1943 ; Removed redundent load
   05F6 1A                 1944 	ld	a,(de)
   05F7 F8 00              1945 	lda	hl,0(sp)
   05F9 77                 1946 	ld	(hl),a
   05FA 13                 1947 	inc	de
   05FB 1A                 1948 	ld	a,(de)
   05FC 23                 1949 	inc	hl
   05FD 77                 1950 	ld	(hl),a
                           1951 ; genAssign
                           1952 ; AOP_HL for _soundReg
   05FE 21 0E 00           1953 	ld	hl,#_soundReg + 0
   0601 4E                 1954 	ld	c,(hl)
   0602 23                 1955 	inc	hl
   0603 46                 1956 	ld	b,(hl)
                           1957 ; genPlus
                           1958 ; genPlusIncr
                           1959 ;	genPlusIncr failed
   0604 79                 1960 	ld	a,c
   0605 C6 18              1961 	add	a,#0x18
   0607 5F                 1962 	ld	e,a
   0608 78                 1963 	ld	a,b
   0609 CE 00              1964 	adc	a,#0x00
   060B 57                 1965 	ld	d,a
                           1966 ; genPointerGet
                           1967 ; Removed redundent load
                           1968 ; Removed redundent load
   060C 1A                 1969 	ld	a,(de)
   060D 4F                 1970 	ld	c,a
   060E 13                 1971 	inc	de
   060F 1A                 1972 	ld	a,(de)
   0610 47                 1973 	ld	b,a
                           1974 ; genLeftShift
   0611 3E 07              1975 	ld	a,#0x06+1
   0613 18 05              1976 	jr	00104$
   0615                    1977 00103$:
   0615 B7                 1978 	or	a,a
   0616 CB 11              1979 	rl	c
   0618 CB 10              1980 	rl	b
   061A                    1981 00104$:
   061A 3D                 1982 	dec	a
   061B 20 F8              1983 	jr	nz,00103$
                           1984 ; genOr
                           1985 ; AOP_STK for _NR14_sloc0_1_0
                           1986 ; Type res[5] = l[5]&r[2]
                           1987 ; Size res[2] = l[2]&r[2]
   061D F8 00              1988 	lda	hl,0(sp)
   061F 7E                 1989 	ld	a,(hl)
   0620 B1                 1990 	or	a,c
   0621 22                 1991 	ld	(hl+),a
   0622 7E                 1992 	ld	a,(hl)
   0623 B0                 1993 	or	a,b
   0624 77                 1994 	ld	(hl),a
                           1995 ; genAssign
                           1996 ; AOP_HL for _soundReg
   0625 21 0E 00           1997 	ld	hl,#_soundReg + 0
   0628 4E                 1998 	ld	c,(hl)
   0629 23                 1999 	inc	hl
   062A 46                 2000 	ld	b,(hl)
                           2001 ; genPlus
                           2002 ; genPlusIncr
                           2003 ;	genPlusIncr failed
   062B 79                 2004 	ld	a,c
   062C C6 1A              2005 	add	a,#0x1A
   062E 5F                 2006 	ld	e,a
   062F 78                 2007 	ld	a,b
   0630 CE 00              2008 	adc	a,#0x00
   0632 57                 2009 	ld	d,a
                           2010 ; genPointerGet
                           2011 ; Removed redundent load
                           2012 ; Removed redundent load
   0633 1A                 2013 	ld	a,(de)
   0634 4F                 2014 	ld	c,a
   0635 13                 2015 	inc	de
   0636 1A                 2016 	ld	a,(de)
   0637 47                 2017 	ld	b,a
                           2018 ; genLeftShift
   0638 3E 08              2019 	ld	a,#0x07+1
   063A 18 05              2020 	jr	00106$
   063C                    2021 00105$:
   063C B7                 2022 	or	a,a
   063D CB 11              2023 	rl	c
   063F CB 10              2024 	rl	b
   0641                    2025 00106$:
   0641 3D                 2026 	dec	a
   0642 20 F8              2027 	jr	nz,00105$
                           2028 ; genOr
                           2029 ; AOP_STK for _NR14_sloc0_1_0
                           2030 ; Type res[2] = l[5]&r[2]
                           2031 ; Size res[2] = l[2]&r[2]
   0644 79                 2032 	ld	a,c
   0645 F8 00              2033 	lda	hl,0(sp)
   0647 B6                 2034 	or	a,(hl)
   0648 4F                 2035 	ld	c,a
   0649 78                 2036 	ld	a,b
   064A 23                 2037 	inc	hl
   064B B6                 2038 	or	a,(hl)
   064C 47                 2039 	ld	b,a
                           2040 ; genCast
                           2041 ; Removed redundent load
                           2042 ; genRet
   064D 59                 2043 	ld	e,c
                           2044 ; genLabel
   064E                    2045 00101$:
                           2046 ; genEndFunction
   064E E8 02              2047 	lda	sp,2(sp)
   0650 C1                 2048 	pop	bc
   0651 C9                 2049 	ret
   0652                    2050 ___NR14_end:
                           2051 ;	sound.c 344
                           2052 ; genLabel
                           2053 ; genFunction
                           2054 ;	---------------------------------
                           2055 ; Function NR21
                           2056 ; ---------------------------------
   0652                    2057 ___NR21_start:
   0652                    2058 _NR21:
   0652 C5                 2059 	push	bc
   0653 E8 FE              2060 	lda	sp,-2(sp)
                           2061 ;	sound.c 345
                           2062 ; genAssign
                           2063 ; AOP_HL for _soundReg
   0655 21 0E 00           2064 	ld	hl,#_soundReg + 0
   0658 4E                 2065 	ld	c,(hl)
   0659 23                 2066 	inc	hl
   065A 46                 2067 	ld	b,(hl)
                           2068 ; genPlus
                           2069 ; genPlusIncr
                           2070 ;	genPlusIncr failed
   065B 79                 2071 	ld	a,c
   065C C6 1E              2072 	add	a,#0x1E
   065E 5F                 2073 	ld	e,a
   065F 78                 2074 	ld	a,b
   0660 CE 00              2075 	adc	a,#0x00
   0662 57                 2076 	ld	d,a
                           2077 ; genPointerGet
                           2078 ; AOP_STK for _NR21_sloc0_1_0
                           2079 ; Removed redundent load
                           2080 ; Removed redundent load
   0663 1A                 2081 	ld	a,(de)
   0664 F8 00              2082 	lda	hl,0(sp)
   0666 77                 2083 	ld	(hl),a
   0667 13                 2084 	inc	de
   0668 1A                 2085 	ld	a,(de)
   0669 23                 2086 	inc	hl
   066A 77                 2087 	ld	(hl),a
                           2088 ; genAssign
                           2089 ; AOP_HL for _soundReg
   066B 21 0E 00           2090 	ld	hl,#_soundReg + 0
   066E 4E                 2091 	ld	c,(hl)
   066F 23                 2092 	inc	hl
   0670 46                 2093 	ld	b,(hl)
                           2094 ; genPlus
                           2095 ; genPlusIncr
                           2096 ;	genPlusIncr failed
   0671 79                 2097 	ld	a,c
   0672 C6 20              2098 	add	a,#0x20
   0674 5F                 2099 	ld	e,a
   0675 78                 2100 	ld	a,b
   0676 CE 00              2101 	adc	a,#0x00
   0678 57                 2102 	ld	d,a
                           2103 ; genPointerGet
                           2104 ; Removed redundent load
                           2105 ; Removed redundent load
   0679 1A                 2106 	ld	a,(de)
   067A 4F                 2107 	ld	c,a
   067B 13                 2108 	inc	de
   067C 1A                 2109 	ld	a,(de)
   067D 47                 2110 	ld	b,a
                           2111 ; genLeftShift
   067E 3E 07              2112 	ld	a,#0x06+1
   0680 18 05              2113 	jr	00104$
   0682                    2114 00103$:
   0682 B7                 2115 	or	a,a
   0683 CB 11              2116 	rl	c
   0685 CB 10              2117 	rl	b
   0687                    2118 00104$:
   0687 3D                 2119 	dec	a
   0688 20 F8              2120 	jr	nz,00103$
                           2121 ; genOr
                           2122 ; AOP_STK for _NR21_sloc0_1_0
                           2123 ; Type res[2] = l[5]&r[2]
                           2124 ; Size res[2] = l[2]&r[2]
   068A 79                 2125 	ld	a,c
   068B F8 00              2126 	lda	hl,0(sp)
   068D B6                 2127 	or	a,(hl)
   068E 4F                 2128 	ld	c,a
   068F 78                 2129 	ld	a,b
   0690 23                 2130 	inc	hl
   0691 B6                 2131 	or	a,(hl)
   0692 47                 2132 	ld	b,a
                           2133 ; genCast
                           2134 ; Removed redundent load
                           2135 ; genRet
   0693 59                 2136 	ld	e,c
                           2137 ; genLabel
   0694                    2138 00101$:
                           2139 ; genEndFunction
   0694 E8 02              2140 	lda	sp,2(sp)
   0696 C1                 2141 	pop	bc
   0697 C9                 2142 	ret
   0698                    2143 ___NR21_end:
                           2144 ;	sound.c 348
                           2145 ; genLabel
                           2146 ; genFunction
                           2147 ;	---------------------------------
                           2148 ; Function NR22
                           2149 ; ---------------------------------
   0698                    2150 ___NR22_start:
   0698                    2151 _NR22:
   0698 C5                 2152 	push	bc
   0699 E8 FE              2153 	lda	sp,-2(sp)
                           2154 ;	sound.c 349
                           2155 ; genAssign
                           2156 ; AOP_HL for _soundReg
   069B 21 0E 00           2157 	ld	hl,#_soundReg + 0
   069E 4E                 2158 	ld	c,(hl)
   069F 23                 2159 	inc	hl
   06A0 46                 2160 	ld	b,(hl)
                           2161 ; genPlus
                           2162 ; genPlusIncr
                           2163 ;	genPlusIncr failed
   06A1 79                 2164 	ld	a,c
   06A2 C6 22              2165 	add	a,#0x22
   06A4 5F                 2166 	ld	e,a
   06A5 78                 2167 	ld	a,b
   06A6 CE 00              2168 	adc	a,#0x00
   06A8 57                 2169 	ld	d,a
                           2170 ; genPointerGet
                           2171 ; AOP_STK for _NR22_sloc0_1_0
                           2172 ; Removed redundent load
                           2173 ; Removed redundent load
   06A9 1A                 2174 	ld	a,(de)
   06AA F8 00              2175 	lda	hl,0(sp)
   06AC 77                 2176 	ld	(hl),a
   06AD 13                 2177 	inc	de
   06AE 1A                 2178 	ld	a,(de)
   06AF 23                 2179 	inc	hl
   06B0 77                 2180 	ld	(hl),a
                           2181 ; genAssign
                           2182 ; AOP_HL for _soundReg
   06B1 21 0E 00           2183 	ld	hl,#_soundReg + 0
   06B4 4E                 2184 	ld	c,(hl)
   06B5 23                 2185 	inc	hl
   06B6 46                 2186 	ld	b,(hl)
                           2187 ; genPlus
                           2188 ; genPlusIncr
                           2189 ;	genPlusIncr failed
   06B7 79                 2190 	ld	a,c
   06B8 C6 24              2191 	add	a,#0x24
   06BA 5F                 2192 	ld	e,a
   06BB 78                 2193 	ld	a,b
   06BC CE 00              2194 	adc	a,#0x00
   06BE 57                 2195 	ld	d,a
                           2196 ; genPointerGet
                           2197 ; Removed redundent load
                           2198 ; Removed redundent load
   06BF 1A                 2199 	ld	a,(de)
   06C0 4F                 2200 	ld	c,a
   06C1 13                 2201 	inc	de
   06C2 1A                 2202 	ld	a,(de)
   06C3 47                 2203 	ld	b,a
                           2204 ; genLeftShift
   06C4 3E 04              2205 	ld	a,#0x03+1
   06C6 18 05              2206 	jr	00104$
   06C8                    2207 00103$:
   06C8 B7                 2208 	or	a,a
   06C9 CB 11              2209 	rl	c
   06CB CB 10              2210 	rl	b
   06CD                    2211 00104$:
   06CD 3D                 2212 	dec	a
   06CE 20 F8              2213 	jr	nz,00103$
                           2214 ; genOr
                           2215 ; AOP_STK for _NR22_sloc0_1_0
                           2216 ; Type res[5] = l[5]&r[2]
                           2217 ; Size res[2] = l[2]&r[2]
   06D0 F8 00              2218 	lda	hl,0(sp)
   06D2 7E                 2219 	ld	a,(hl)
   06D3 B1                 2220 	or	a,c
   06D4 22                 2221 	ld	(hl+),a
   06D5 7E                 2222 	ld	a,(hl)
   06D6 B0                 2223 	or	a,b
   06D7 77                 2224 	ld	(hl),a
                           2225 ; genAssign
                           2226 ; AOP_HL for _soundReg
   06D8 21 0E 00           2227 	ld	hl,#_soundReg + 0
   06DB 4E                 2228 	ld	c,(hl)
   06DC 23                 2229 	inc	hl
   06DD 46                 2230 	ld	b,(hl)
                           2231 ; genPlus
                           2232 ; genPlusIncr
                           2233 ;	genPlusIncr failed
   06DE 79                 2234 	ld	a,c
   06DF C6 26              2235 	add	a,#0x26
   06E1 5F                 2236 	ld	e,a
   06E2 78                 2237 	ld	a,b
   06E3 CE 00              2238 	adc	a,#0x00
   06E5 57                 2239 	ld	d,a
                           2240 ; genPointerGet
                           2241 ; Removed redundent load
                           2242 ; Removed redundent load
   06E6 1A                 2243 	ld	a,(de)
   06E7 4F                 2244 	ld	c,a
   06E8 13                 2245 	inc	de
   06E9 1A                 2246 	ld	a,(de)
   06EA 47                 2247 	ld	b,a
                           2248 ; genLeftShift
   06EB 3E 05              2249 	ld	a,#0x04+1
   06ED 18 05              2250 	jr	00106$
   06EF                    2251 00105$:
   06EF B7                 2252 	or	a,a
   06F0 CB 11              2253 	rl	c
   06F2 CB 10              2254 	rl	b
   06F4                    2255 00106$:
   06F4 3D                 2256 	dec	a
   06F5 20 F8              2257 	jr	nz,00105$
                           2258 ; genOr
                           2259 ; AOP_STK for _NR22_sloc0_1_0
                           2260 ; Type res[2] = l[5]&r[2]
                           2261 ; Size res[2] = l[2]&r[2]
   06F7 79                 2262 	ld	a,c
   06F8 F8 00              2263 	lda	hl,0(sp)
   06FA B6                 2264 	or	a,(hl)
   06FB 4F                 2265 	ld	c,a
   06FC 78                 2266 	ld	a,b
   06FD 23                 2267 	inc	hl
   06FE B6                 2268 	or	a,(hl)
   06FF 47                 2269 	ld	b,a
                           2270 ; genCast
                           2271 ; Removed redundent load
                           2272 ; genRet
   0700 59                 2273 	ld	e,c
                           2274 ; genLabel
   0701                    2275 00101$:
                           2276 ; genEndFunction
   0701 E8 02              2277 	lda	sp,2(sp)
   0703 C1                 2278 	pop	bc
   0704 C9                 2279 	ret
   0705                    2280 ___NR22_end:
                           2281 ;	sound.c 352
                           2282 ; genLabel
                           2283 ; genFunction
                           2284 ;	---------------------------------
                           2285 ; Function NR23
                           2286 ; ---------------------------------
   0705                    2287 ___NR23_start:
   0705                    2288 _NR23:
   0705 C5                 2289 	push	bc
                           2290 	
                           2291 ;	sound.c 353
                           2292 ; genAssign
                           2293 ; AOP_HL for _soundReg
   0706 21 0E 00           2294 	ld	hl,#_soundReg + 0
   0709 4E                 2295 	ld	c,(hl)
   070A 23                 2296 	inc	hl
   070B 46                 2297 	ld	b,(hl)
                           2298 ; genPlus
                           2299 ; genPlusIncr
                           2300 ;	genPlusIncr failed
   070C 79                 2301 	ld	a,c
   070D C6 28              2302 	add	a,#0x28
   070F 5F                 2303 	ld	e,a
   0710 78                 2304 	ld	a,b
   0711 CE 00              2305 	adc	a,#0x00
   0713 57                 2306 	ld	d,a
                           2307 ; genPointerGet
                           2308 ; Removed redundent load
                           2309 ; Removed redundent load
   0714 1A                 2310 	ld	a,(de)
   0715 4F                 2311 	ld	c,a
   0716 13                 2312 	inc	de
   0717 1A                 2313 	ld	a,(de)
   0718 47                 2314 	ld	b,a
                           2315 ; genCast
                           2316 ; Removed redundent load
                           2317 ; genRet
   0719 59                 2318 	ld	e,c
                           2319 ; genLabel
   071A                    2320 00101$:
                           2321 ; genEndFunction
                           2322 	
   071A C1                 2323 	pop	bc
   071B C9                 2324 	ret
   071C                    2325 ___NR23_end:
                           2326 ;	sound.c 356
                           2327 ; genLabel
                           2328 ; genFunction
                           2329 ;	---------------------------------
                           2330 ; Function NR24
                           2331 ; ---------------------------------
   071C                    2332 ___NR24_start:
   071C                    2333 _NR24:
   071C C5                 2334 	push	bc
   071D E8 FE              2335 	lda	sp,-2(sp)
                           2336 ;	sound.c 357
                           2337 ; genAssign
                           2338 ; AOP_HL for _soundReg
   071F 21 0E 00           2339 	ld	hl,#_soundReg + 0
   0722 4E                 2340 	ld	c,(hl)
   0723 23                 2341 	inc	hl
   0724 46                 2342 	ld	b,(hl)
                           2343 ; genPlus
                           2344 ; genPlusIncr
                           2345 ;	genPlusIncr failed
   0725 79                 2346 	ld	a,c
   0726 C6 2A              2347 	add	a,#0x2A
   0728 5F                 2348 	ld	e,a
   0729 78                 2349 	ld	a,b
   072A CE 00              2350 	adc	a,#0x00
   072C 57                 2351 	ld	d,a
                           2352 ; genPointerGet
                           2353 ; AOP_STK for _NR24_sloc0_1_0
                           2354 ; Removed redundent load
                           2355 ; Removed redundent load
   072D 1A                 2356 	ld	a,(de)
   072E F8 00              2357 	lda	hl,0(sp)
   0730 77                 2358 	ld	(hl),a
   0731 13                 2359 	inc	de
   0732 1A                 2360 	ld	a,(de)
   0733 23                 2361 	inc	hl
   0734 77                 2362 	ld	(hl),a
                           2363 ; genAssign
                           2364 ; AOP_HL for _soundReg
   0735 21 0E 00           2365 	ld	hl,#_soundReg + 0
   0738 4E                 2366 	ld	c,(hl)
   0739 23                 2367 	inc	hl
   073A 46                 2368 	ld	b,(hl)
                           2369 ; genPlus
                           2370 ; genPlusIncr
                           2371 ;	genPlusIncr failed
   073B 79                 2372 	ld	a,c
   073C C6 2E              2373 	add	a,#0x2E
   073E 5F                 2374 	ld	e,a
   073F 78                 2375 	ld	a,b
   0740 CE 00              2376 	adc	a,#0x00
   0742 57                 2377 	ld	d,a
                           2378 ; genPointerGet
                           2379 ; Removed redundent load
                           2380 ; Removed redundent load
   0743 1A                 2381 	ld	a,(de)
   0744 4F                 2382 	ld	c,a
   0745 13                 2383 	inc	de
   0746 1A                 2384 	ld	a,(de)
   0747 47                 2385 	ld	b,a
                           2386 ; genLeftShift
   0748 3E 07              2387 	ld	a,#0x06+1
   074A 18 05              2388 	jr	00104$
   074C                    2389 00103$:
   074C B7                 2390 	or	a,a
   074D CB 11              2391 	rl	c
   074F CB 10              2392 	rl	b
   0751                    2393 00104$:
   0751 3D                 2394 	dec	a
   0752 20 F8              2395 	jr	nz,00103$
                           2396 ; genOr
                           2397 ; AOP_STK for _NR24_sloc0_1_0
                           2398 ; Type res[5] = l[5]&r[2]
                           2399 ; Size res[2] = l[2]&r[2]
   0754 F8 00              2400 	lda	hl,0(sp)
   0756 7E                 2401 	ld	a,(hl)
   0757 B1                 2402 	or	a,c
   0758 22                 2403 	ld	(hl+),a
   0759 7E                 2404 	ld	a,(hl)
   075A B0                 2405 	or	a,b
   075B 77                 2406 	ld	(hl),a
                           2407 ; genAssign
                           2408 ; AOP_HL for _soundReg
   075C 21 0E 00           2409 	ld	hl,#_soundReg + 0
   075F 4E                 2410 	ld	c,(hl)
   0760 23                 2411 	inc	hl
   0761 46                 2412 	ld	b,(hl)
                           2413 ; genPlus
                           2414 ; genPlusIncr
                           2415 ;	genPlusIncr failed
   0762 79                 2416 	ld	a,c
   0763 C6 30              2417 	add	a,#0x30
   0765 5F                 2418 	ld	e,a
   0766 78                 2419 	ld	a,b
   0767 CE 00              2420 	adc	a,#0x00
   0769 57                 2421 	ld	d,a
                           2422 ; genPointerGet
                           2423 ; Removed redundent load
                           2424 ; Removed redundent load
   076A 1A                 2425 	ld	a,(de)
   076B 4F                 2426 	ld	c,a
   076C 13                 2427 	inc	de
   076D 1A                 2428 	ld	a,(de)
   076E 47                 2429 	ld	b,a
                           2430 ; genLeftShift
   076F 3E 08              2431 	ld	a,#0x07+1
   0771 18 05              2432 	jr	00106$
   0773                    2433 00105$:
   0773 B7                 2434 	or	a,a
   0774 CB 11              2435 	rl	c
   0776 CB 10              2436 	rl	b
   0778                    2437 00106$:
   0778 3D                 2438 	dec	a
   0779 20 F8              2439 	jr	nz,00105$
                           2440 ; genOr
                           2441 ; AOP_STK for _NR24_sloc0_1_0
                           2442 ; Type res[2] = l[5]&r[2]
                           2443 ; Size res[2] = l[2]&r[2]
   077B 79                 2444 	ld	a,c
   077C F8 00              2445 	lda	hl,0(sp)
   077E B6                 2446 	or	a,(hl)
   077F 4F                 2447 	ld	c,a
   0780 78                 2448 	ld	a,b
   0781 23                 2449 	inc	hl
   0782 B6                 2450 	or	a,(hl)
   0783 47                 2451 	ld	b,a
                           2452 ; genCast
                           2453 ; Removed redundent load
                           2454 ; genRet
   0784 59                 2455 	ld	e,c
                           2456 ; genLabel
   0785                    2457 00101$:
                           2458 ; genEndFunction
   0785 E8 02              2459 	lda	sp,2(sp)
   0787 C1                 2460 	pop	bc
   0788 C9                 2461 	ret
   0789                    2462 ___NR24_end:
                           2463 ;	sound.c 361
                           2464 ; genLabel
                           2465 ; genFunction
                           2466 ;	---------------------------------
                           2467 ; Function NR30
                           2468 ; ---------------------------------
   0789                    2469 ___NR30_start:
   0789                    2470 _NR30:
   0789 C5                 2471 	push	bc
                           2472 	
                           2473 ;	sound.c 362
                           2474 ; genAssign
                           2475 ; AOP_HL for _soundReg
   078A 21 0E 00           2476 	ld	hl,#_soundReg + 0
   078D 4E                 2477 	ld	c,(hl)
   078E 23                 2478 	inc	hl
   078F 46                 2479 	ld	b,(hl)
                           2480 ; genPlus
                           2481 ; genPlusIncr
                           2482 ;	genPlusIncr failed
   0790 79                 2483 	ld	a,c
   0791 C6 34              2484 	add	a,#0x34
   0793 5F                 2485 	ld	e,a
   0794 78                 2486 	ld	a,b
   0795 CE 00              2487 	adc	a,#0x00
   0797 57                 2488 	ld	d,a
                           2489 ; genPointerGet
                           2490 ; Removed redundent load
                           2491 ; Removed redundent load
   0798 1A                 2492 	ld	a,(de)
   0799 4F                 2493 	ld	c,a
   079A 13                 2494 	inc	de
   079B 1A                 2495 	ld	a,(de)
   079C 47                 2496 	ld	b,a
                           2497 ; genLeftShift
   079D 3E 08              2498 	ld	a,#0x07+1
   079F 18 05              2499 	jr	00104$
   07A1                    2500 00103$:
   07A1 B7                 2501 	or	a,a
   07A2 CB 11              2502 	rl	c
   07A4 CB 10              2503 	rl	b
   07A6                    2504 00104$:
   07A6 3D                 2505 	dec	a
   07A7 20 F8              2506 	jr	nz,00103$
                           2507 ; genCast
                           2508 ; Removed redundent load
                           2509 ; genRet
   07A9 59                 2510 	ld	e,c
                           2511 ; genLabel
   07AA                    2512 00101$:
                           2513 ; genEndFunction
                           2514 	
   07AA C1                 2515 	pop	bc
   07AB C9                 2516 	ret
   07AC                    2517 ___NR30_end:
                           2518 ;	sound.c 365
                           2519 ; genLabel
                           2520 ; genFunction
                           2521 ;	---------------------------------
                           2522 ; Function NR31
                           2523 ; ---------------------------------
   07AC                    2524 ___NR31_start:
   07AC                    2525 _NR31:
   07AC C5                 2526 	push	bc
                           2527 	
                           2528 ;	sound.c 366
                           2529 ; genAssign
                           2530 ; AOP_HL for _soundReg
   07AD 21 0E 00           2531 	ld	hl,#_soundReg + 0
   07B0 4E                 2532 	ld	c,(hl)
   07B1 23                 2533 	inc	hl
   07B2 46                 2534 	ld	b,(hl)
                           2535 ; genPlus
                           2536 ; genPlusIncr
                           2537 ;	genPlusIncr failed
   07B3 79                 2538 	ld	a,c
   07B4 C6 36              2539 	add	a,#0x36
   07B6 5F                 2540 	ld	e,a
   07B7 78                 2541 	ld	a,b
   07B8 CE 00              2542 	adc	a,#0x00
   07BA 57                 2543 	ld	d,a
                           2544 ; genPointerGet
                           2545 ; Removed redundent load
                           2546 ; Removed redundent load
   07BB 1A                 2547 	ld	a,(de)
   07BC 4F                 2548 	ld	c,a
   07BD 13                 2549 	inc	de
   07BE 1A                 2550 	ld	a,(de)
   07BF 47                 2551 	ld	b,a
                           2552 ; genCast
                           2553 ; Removed redundent load
                           2554 ; genRet
   07C0 59                 2555 	ld	e,c
                           2556 ; genLabel
   07C1                    2557 00101$:
                           2558 ; genEndFunction
                           2559 	
   07C1 C1                 2560 	pop	bc
   07C2 C9                 2561 	ret
   07C3                    2562 ___NR31_end:
                           2563 ;	sound.c 369
                           2564 ; genLabel
                           2565 ; genFunction
                           2566 ;	---------------------------------
                           2567 ; Function NR32
                           2568 ; ---------------------------------
   07C3                    2569 ___NR32_start:
   07C3                    2570 _NR32:
   07C3 C5                 2571 	push	bc
                           2572 	
                           2573 ;	sound.c 370
                           2574 ; genAssign
                           2575 ; AOP_HL for _soundReg
   07C4 21 0E 00           2576 	ld	hl,#_soundReg + 0
   07C7 4E                 2577 	ld	c,(hl)
   07C8 23                 2578 	inc	hl
   07C9 46                 2579 	ld	b,(hl)
                           2580 ; genPlus
                           2581 ; genPlusIncr
                           2582 ;	genPlusIncr failed
   07CA 79                 2583 	ld	a,c
   07CB C6 3A              2584 	add	a,#0x3A
   07CD 5F                 2585 	ld	e,a
   07CE 78                 2586 	ld	a,b
   07CF CE 00              2587 	adc	a,#0x00
   07D1 57                 2588 	ld	d,a
                           2589 ; genPointerGet
                           2590 ; Removed redundent load
                           2591 ; Removed redundent load
   07D2 1A                 2592 	ld	a,(de)
   07D3 4F                 2593 	ld	c,a
   07D4 13                 2594 	inc	de
   07D5 1A                 2595 	ld	a,(de)
   07D6 47                 2596 	ld	b,a
                           2597 ; genLeftShift
   07D7 3E 06              2598 	ld	a,#0x05+1
   07D9 18 05              2599 	jr	00104$
   07DB                    2600 00103$:
   07DB B7                 2601 	or	a,a
   07DC CB 11              2602 	rl	c
   07DE CB 10              2603 	rl	b
   07E0                    2604 00104$:
   07E0 3D                 2605 	dec	a
   07E1 20 F8              2606 	jr	nz,00103$
                           2607 ; genCast
                           2608 ; Removed redundent load
                           2609 ; genRet
   07E3 59                 2610 	ld	e,c
                           2611 ; genLabel
   07E4                    2612 00101$:
                           2613 ; genEndFunction
                           2614 	
   07E4 C1                 2615 	pop	bc
   07E5 C9                 2616 	ret
   07E6                    2617 ___NR32_end:
                           2618 ;	sound.c 373
                           2619 ; genLabel
                           2620 ; genFunction
                           2621 ;	---------------------------------
                           2622 ; Function NR33
                           2623 ; ---------------------------------
   07E6                    2624 ___NR33_start:
   07E6                    2625 _NR33:
   07E6 C5                 2626 	push	bc
                           2627 	
                           2628 ;	sound.c 374
                           2629 ; genAssign
                           2630 ; AOP_HL for _soundReg
   07E7 21 0E 00           2631 	ld	hl,#_soundReg + 0
   07EA 4E                 2632 	ld	c,(hl)
   07EB 23                 2633 	inc	hl
   07EC 46                 2634 	ld	b,(hl)
                           2635 ; genPlus
                           2636 ; genPlusIncr
                           2637 ;	genPlusIncr failed
   07ED 79                 2638 	ld	a,c
   07EE C6 3E              2639 	add	a,#0x3E
   07F0 5F                 2640 	ld	e,a
   07F1 78                 2641 	ld	a,b
   07F2 CE 00              2642 	adc	a,#0x00
   07F4 57                 2643 	ld	d,a
                           2644 ; genPointerGet
                           2645 ; Removed redundent load
                           2646 ; Removed redundent load
   07F5 1A                 2647 	ld	a,(de)
   07F6 4F                 2648 	ld	c,a
   07F7 13                 2649 	inc	de
   07F8 1A                 2650 	ld	a,(de)
   07F9 47                 2651 	ld	b,a
                           2652 ; genCast
                           2653 ; Removed redundent load
                           2654 ; genRet
   07FA 59                 2655 	ld	e,c
                           2656 ; genLabel
   07FB                    2657 00101$:
                           2658 ; genEndFunction
                           2659 	
   07FB C1                 2660 	pop	bc
   07FC C9                 2661 	ret
   07FD                    2662 ___NR33_end:
                           2663 ;	sound.c 377
                           2664 ; genLabel
                           2665 ; genFunction
                           2666 ;	---------------------------------
                           2667 ; Function NR34
                           2668 ; ---------------------------------
   07FD                    2669 ___NR34_start:
   07FD                    2670 _NR34:
   07FD C5                 2671 	push	bc
   07FE E8 FE              2672 	lda	sp,-2(sp)
                           2673 ;	sound.c 378
                           2674 ; genAssign
                           2675 ; AOP_HL for _soundReg
   0800 21 0E 00           2676 	ld	hl,#_soundReg + 0
   0803 4E                 2677 	ld	c,(hl)
   0804 23                 2678 	inc	hl
   0805 46                 2679 	ld	b,(hl)
                           2680 ; genPlus
                           2681 ; genPlusIncr
                           2682 ;	genPlusIncr failed
   0806 79                 2683 	ld	a,c
   0807 C6 40              2684 	add	a,#0x40
   0809 5F                 2685 	ld	e,a
   080A 78                 2686 	ld	a,b
   080B CE 00              2687 	adc	a,#0x00
   080D 57                 2688 	ld	d,a
                           2689 ; genPointerGet
                           2690 ; AOP_STK for _NR34_sloc0_1_0
                           2691 ; Removed redundent load
                           2692 ; Removed redundent load
   080E 1A                 2693 	ld	a,(de)
   080F F8 00              2694 	lda	hl,0(sp)
   0811 77                 2695 	ld	(hl),a
   0812 13                 2696 	inc	de
   0813 1A                 2697 	ld	a,(de)
   0814 23                 2698 	inc	hl
   0815 77                 2699 	ld	(hl),a
                           2700 ; genAssign
                           2701 ; AOP_HL for _soundReg
   0816 21 0E 00           2702 	ld	hl,#_soundReg + 0
   0819 4E                 2703 	ld	c,(hl)
   081A 23                 2704 	inc	hl
   081B 46                 2705 	ld	b,(hl)
                           2706 ; genPlus
                           2707 ; genPlusIncr
                           2708 ;	genPlusIncr failed
   081C 79                 2709 	ld	a,c
   081D C6 44              2710 	add	a,#0x44
   081F 5F                 2711 	ld	e,a
   0820 78                 2712 	ld	a,b
   0821 CE 00              2713 	adc	a,#0x00
   0823 57                 2714 	ld	d,a
                           2715 ; genPointerGet
                           2716 ; Removed redundent load
                           2717 ; Removed redundent load
   0824 1A                 2718 	ld	a,(de)
   0825 4F                 2719 	ld	c,a
   0826 13                 2720 	inc	de
   0827 1A                 2721 	ld	a,(de)
   0828 47                 2722 	ld	b,a
                           2723 ; genLeftShift
   0829 3E 07              2724 	ld	a,#0x06+1
   082B 18 05              2725 	jr	00104$
   082D                    2726 00103$:
   082D B7                 2727 	or	a,a
   082E CB 11              2728 	rl	c
   0830 CB 10              2729 	rl	b
   0832                    2730 00104$:
   0832 3D                 2731 	dec	a
   0833 20 F8              2732 	jr	nz,00103$
                           2733 ; genOr
                           2734 ; AOP_STK for _NR34_sloc0_1_0
                           2735 ; Type res[5] = l[5]&r[2]
                           2736 ; Size res[2] = l[2]&r[2]
   0835 F8 00              2737 	lda	hl,0(sp)
   0837 7E                 2738 	ld	a,(hl)
   0838 B1                 2739 	or	a,c
   0839 22                 2740 	ld	(hl+),a
   083A 7E                 2741 	ld	a,(hl)
   083B B0                 2742 	or	a,b
   083C 77                 2743 	ld	(hl),a
                           2744 ; genAssign
                           2745 ; AOP_HL for _soundReg
   083D 21 0E 00           2746 	ld	hl,#_soundReg + 0
   0840 4E                 2747 	ld	c,(hl)
   0841 23                 2748 	inc	hl
   0842 46                 2749 	ld	b,(hl)
                           2750 ; genPlus
                           2751 ; genPlusIncr
                           2752 ;	genPlusIncr failed
   0843 79                 2753 	ld	a,c
   0844 C6 46              2754 	add	a,#0x46
   0846 5F                 2755 	ld	e,a
   0847 78                 2756 	ld	a,b
   0848 CE 00              2757 	adc	a,#0x00
   084A 57                 2758 	ld	d,a
                           2759 ; genPointerGet
                           2760 ; Removed redundent load
                           2761 ; Removed redundent load
   084B 1A                 2762 	ld	a,(de)
   084C 4F                 2763 	ld	c,a
   084D 13                 2764 	inc	de
   084E 1A                 2765 	ld	a,(de)
   084F 47                 2766 	ld	b,a
                           2767 ; genLeftShift
   0850 3E 08              2768 	ld	a,#0x07+1
   0852 18 05              2769 	jr	00106$
   0854                    2770 00105$:
   0854 B7                 2771 	or	a,a
   0855 CB 11              2772 	rl	c
   0857 CB 10              2773 	rl	b
   0859                    2774 00106$:
   0859 3D                 2775 	dec	a
   085A 20 F8              2776 	jr	nz,00105$
                           2777 ; genOr
                           2778 ; AOP_STK for _NR34_sloc0_1_0
                           2779 ; Type res[2] = l[5]&r[2]
                           2780 ; Size res[2] = l[2]&r[2]
   085C 79                 2781 	ld	a,c
   085D F8 00              2782 	lda	hl,0(sp)
   085F B6                 2783 	or	a,(hl)
   0860 4F                 2784 	ld	c,a
   0861 78                 2785 	ld	a,b
   0862 23                 2786 	inc	hl
   0863 B6                 2787 	or	a,(hl)
   0864 47                 2788 	ld	b,a
                           2789 ; genCast
                           2790 ; Removed redundent load
                           2791 ; genRet
   0865 59                 2792 	ld	e,c
                           2793 ; genLabel
   0866                    2794 00101$:
                           2795 ; genEndFunction
   0866 E8 02              2796 	lda	sp,2(sp)
   0868 C1                 2797 	pop	bc
   0869 C9                 2798 	ret
   086A                    2799 ___NR34_end:
                           2800 ;	sound.c 382
                           2801 ; genLabel
                           2802 ; genFunction
                           2803 ;	---------------------------------
                           2804 ; Function NR41
                           2805 ; ---------------------------------
   086A                    2806 ___NR41_start:
   086A                    2807 _NR41:
   086A C5                 2808 	push	bc
                           2809 	
                           2810 ;	sound.c 383
                           2811 ; genAssign
                           2812 ; AOP_HL for _soundReg
   086B 21 0E 00           2813 	ld	hl,#_soundReg + 0
   086E 4E                 2814 	ld	c,(hl)
   086F 23                 2815 	inc	hl
   0870 46                 2816 	ld	b,(hl)
                           2817 ; genPlus
                           2818 ; genPlusIncr
                           2819 ;	genPlusIncr failed
   0871 79                 2820 	ld	a,c
   0872 C6 4A              2821 	add	a,#0x4A
   0874 5F                 2822 	ld	e,a
   0875 78                 2823 	ld	a,b
   0876 CE 00              2824 	adc	a,#0x00
   0878 57                 2825 	ld	d,a
                           2826 ; genPointerGet
                           2827 ; Removed redundent load
                           2828 ; Removed redundent load
   0879 1A                 2829 	ld	a,(de)
   087A 4F                 2830 	ld	c,a
   087B 13                 2831 	inc	de
   087C 1A                 2832 	ld	a,(de)
   087D 47                 2833 	ld	b,a
                           2834 ; genCast
                           2835 ; Removed redundent load
                           2836 ; genRet
   087E 59                 2837 	ld	e,c
                           2838 ; genLabel
   087F                    2839 00101$:
                           2840 ; genEndFunction
                           2841 	
   087F C1                 2842 	pop	bc
   0880 C9                 2843 	ret
   0881                    2844 ___NR41_end:
                           2845 ;	sound.c 386
                           2846 ; genLabel
                           2847 ; genFunction
                           2848 ;	---------------------------------
                           2849 ; Function NR42
                           2850 ; ---------------------------------
   0881                    2851 ___NR42_start:
   0881                    2852 _NR42:
   0881 C5                 2853 	push	bc
   0882 E8 FE              2854 	lda	sp,-2(sp)
                           2855 ;	sound.c 387
                           2856 ; genAssign
                           2857 ; AOP_HL for _soundReg
   0884 21 0E 00           2858 	ld	hl,#_soundReg + 0
   0887 4E                 2859 	ld	c,(hl)
   0888 23                 2860 	inc	hl
   0889 46                 2861 	ld	b,(hl)
                           2862 ; genPlus
                           2863 ; genPlusIncr
                           2864 ;	genPlusIncr failed
   088A 79                 2865 	ld	a,c
   088B C6 4E              2866 	add	a,#0x4E
   088D 5F                 2867 	ld	e,a
   088E 78                 2868 	ld	a,b
   088F CE 00              2869 	adc	a,#0x00
   0891 57                 2870 	ld	d,a
                           2871 ; genPointerGet
                           2872 ; AOP_STK for _NR42_sloc0_1_0
                           2873 ; Removed redundent load
                           2874 ; Removed redundent load
   0892 1A                 2875 	ld	a,(de)
   0893 F8 00              2876 	lda	hl,0(sp)
   0895 77                 2877 	ld	(hl),a
   0896 13                 2878 	inc	de
   0897 1A                 2879 	ld	a,(de)
   0898 23                 2880 	inc	hl
   0899 77                 2881 	ld	(hl),a
                           2882 ; genAssign
                           2883 ; AOP_HL for _soundReg
   089A 21 0E 00           2884 	ld	hl,#_soundReg + 0
   089D 4E                 2885 	ld	c,(hl)
   089E 23                 2886 	inc	hl
   089F 46                 2887 	ld	b,(hl)
                           2888 ; genPlus
                           2889 ; genPlusIncr
                           2890 ;	genPlusIncr failed
   08A0 79                 2891 	ld	a,c
   08A1 C6 50              2892 	add	a,#0x50
   08A3 5F                 2893 	ld	e,a
   08A4 78                 2894 	ld	a,b
   08A5 CE 00              2895 	adc	a,#0x00
   08A7 57                 2896 	ld	d,a
                           2897 ; genPointerGet
                           2898 ; Removed redundent load
                           2899 ; Removed redundent load
   08A8 1A                 2900 	ld	a,(de)
   08A9 4F                 2901 	ld	c,a
   08AA 13                 2902 	inc	de
   08AB 1A                 2903 	ld	a,(de)
   08AC 47                 2904 	ld	b,a
                           2905 ; genLeftShift
   08AD 3E 04              2906 	ld	a,#0x03+1
   08AF 18 05              2907 	jr	00104$
   08B1                    2908 00103$:
   08B1 B7                 2909 	or	a,a
   08B2 CB 11              2910 	rl	c
   08B4 CB 10              2911 	rl	b
   08B6                    2912 00104$:
   08B6 3D                 2913 	dec	a
   08B7 20 F8              2914 	jr	nz,00103$
                           2915 ; genOr
                           2916 ; AOP_STK for _NR42_sloc0_1_0
                           2917 ; Type res[5] = l[5]&r[2]
                           2918 ; Size res[2] = l[2]&r[2]
   08B9 F8 00              2919 	lda	hl,0(sp)
   08BB 7E                 2920 	ld	a,(hl)
   08BC B1                 2921 	or	a,c
   08BD 22                 2922 	ld	(hl+),a
   08BE 7E                 2923 	ld	a,(hl)
   08BF B0                 2924 	or	a,b
   08C0 77                 2925 	ld	(hl),a
                           2926 ; genAssign
                           2927 ; AOP_HL for _soundReg
   08C1 21 0E 00           2928 	ld	hl,#_soundReg + 0
   08C4 4E                 2929 	ld	c,(hl)
   08C5 23                 2930 	inc	hl
   08C6 46                 2931 	ld	b,(hl)
                           2932 ; genPlus
                           2933 ; genPlusIncr
                           2934 ;	genPlusIncr failed
   08C7 79                 2935 	ld	a,c
   08C8 C6 52              2936 	add	a,#0x52
   08CA 5F                 2937 	ld	e,a
   08CB 78                 2938 	ld	a,b
   08CC CE 00              2939 	adc	a,#0x00
   08CE 57                 2940 	ld	d,a
                           2941 ; genPointerGet
                           2942 ; Removed redundent load
                           2943 ; Removed redundent load
   08CF 1A                 2944 	ld	a,(de)
   08D0 4F                 2945 	ld	c,a
   08D1 13                 2946 	inc	de
   08D2 1A                 2947 	ld	a,(de)
   08D3 47                 2948 	ld	b,a
                           2949 ; genLeftShift
   08D4 3E 05              2950 	ld	a,#0x04+1
   08D6 18 05              2951 	jr	00106$
   08D8                    2952 00105$:
   08D8 B7                 2953 	or	a,a
   08D9 CB 11              2954 	rl	c
   08DB CB 10              2955 	rl	b
   08DD                    2956 00106$:
   08DD 3D                 2957 	dec	a
   08DE 20 F8              2958 	jr	nz,00105$
                           2959 ; genOr
                           2960 ; AOP_STK for _NR42_sloc0_1_0
                           2961 ; Type res[2] = l[5]&r[2]
                           2962 ; Size res[2] = l[2]&r[2]
   08E0 79                 2963 	ld	a,c
   08E1 F8 00              2964 	lda	hl,0(sp)
   08E3 B6                 2965 	or	a,(hl)
   08E4 4F                 2966 	ld	c,a
   08E5 78                 2967 	ld	a,b
   08E6 23                 2968 	inc	hl
   08E7 B6                 2969 	or	a,(hl)
   08E8 47                 2970 	ld	b,a
                           2971 ; genCast
                           2972 ; Removed redundent load
                           2973 ; genRet
   08E9 59                 2974 	ld	e,c
                           2975 ; genLabel
   08EA                    2976 00101$:
                           2977 ; genEndFunction
   08EA E8 02              2978 	lda	sp,2(sp)
   08EC C1                 2979 	pop	bc
   08ED C9                 2980 	ret
   08EE                    2981 ___NR42_end:
                           2982 ;	sound.c 390
                           2983 ; genLabel
                           2984 ; genFunction
                           2985 ;	---------------------------------
                           2986 ; Function NR43
                           2987 ; ---------------------------------
   08EE                    2988 ___NR43_start:
   08EE                    2989 _NR43:
   08EE C5                 2990 	push	bc
   08EF E8 FE              2991 	lda	sp,-2(sp)
                           2992 ;	sound.c 391
                           2993 ; genAssign
                           2994 ; AOP_HL for _soundReg
   08F1 21 0E 00           2995 	ld	hl,#_soundReg + 0
   08F4 4E                 2996 	ld	c,(hl)
   08F5 23                 2997 	inc	hl
   08F6 46                 2998 	ld	b,(hl)
                           2999 ; genPlus
                           3000 ; genPlusIncr
                           3001 ;	genPlusIncr failed
   08F7 79                 3002 	ld	a,c
   08F8 C6 54              3003 	add	a,#0x54
   08FA 5F                 3004 	ld	e,a
   08FB 78                 3005 	ld	a,b
   08FC CE 00              3006 	adc	a,#0x00
   08FE 57                 3007 	ld	d,a
                           3008 ; genPointerGet
                           3009 ; AOP_STK for _NR43_sloc0_1_0
                           3010 ; Removed redundent load
                           3011 ; Removed redundent load
   08FF 1A                 3012 	ld	a,(de)
   0900 F8 00              3013 	lda	hl,0(sp)
   0902 77                 3014 	ld	(hl),a
   0903 13                 3015 	inc	de
   0904 1A                 3016 	ld	a,(de)
   0905 23                 3017 	inc	hl
   0906 77                 3018 	ld	(hl),a
                           3019 ; genAssign
                           3020 ; AOP_HL for _soundReg
   0907 21 0E 00           3021 	ld	hl,#_soundReg + 0
   090A 4E                 3022 	ld	c,(hl)
   090B 23                 3023 	inc	hl
   090C 46                 3024 	ld	b,(hl)
                           3025 ; genPlus
                           3026 ; genPlusIncr
                           3027 ;	genPlusIncr failed
   090D 79                 3028 	ld	a,c
   090E C6 58              3029 	add	a,#0x58
   0910 5F                 3030 	ld	e,a
   0911 78                 3031 	ld	a,b
   0912 CE 00              3032 	adc	a,#0x00
   0914 57                 3033 	ld	d,a
                           3034 ; genPointerGet
                           3035 ; Removed redundent load
                           3036 ; Removed redundent load
   0915 1A                 3037 	ld	a,(de)
   0916 4F                 3038 	ld	c,a
   0917 13                 3039 	inc	de
   0918 1A                 3040 	ld	a,(de)
   0919 47                 3041 	ld	b,a
                           3042 ; genLeftShift
   091A 3E 04              3043 	ld	a,#0x03+1
   091C 18 05              3044 	jr	00104$
   091E                    3045 00103$:
   091E B7                 3046 	or	a,a
   091F CB 11              3047 	rl	c
   0921 CB 10              3048 	rl	b
   0923                    3049 00104$:
   0923 3D                 3050 	dec	a
   0924 20 F8              3051 	jr	nz,00103$
                           3052 ; genOr
                           3053 ; AOP_STK for _NR43_sloc0_1_0
                           3054 ; Type res[5] = l[5]&r[2]
                           3055 ; Size res[2] = l[2]&r[2]
   0926 F8 00              3056 	lda	hl,0(sp)
   0928 7E                 3057 	ld	a,(hl)
   0929 B1                 3058 	or	a,c
   092A 22                 3059 	ld	(hl+),a
   092B 7E                 3060 	ld	a,(hl)
   092C B0                 3061 	or	a,b
   092D 77                 3062 	ld	(hl),a
                           3063 ; genAssign
                           3064 ; AOP_HL for _soundReg
   092E 21 0E 00           3065 	ld	hl,#_soundReg + 0
   0931 4E                 3066 	ld	c,(hl)
   0932 23                 3067 	inc	hl
   0933 46                 3068 	ld	b,(hl)
                           3069 ; genPlus
                           3070 ; genPlusIncr
                           3071 ;	genPlusIncr failed
   0934 79                 3072 	ld	a,c
   0935 C6 58              3073 	add	a,#0x58
   0937 5F                 3074 	ld	e,a
   0938 78                 3075 	ld	a,b
   0939 CE 00              3076 	adc	a,#0x00
   093B 57                 3077 	ld	d,a
                           3078 ; genPointerGet
                           3079 ; Removed redundent load
                           3080 ; Removed redundent load
   093C 1A                 3081 	ld	a,(de)
   093D 4F                 3082 	ld	c,a
   093E 13                 3083 	inc	de
   093F 1A                 3084 	ld	a,(de)
   0940 47                 3085 	ld	b,a
                           3086 ; genLeftShift
   0941 3E 05              3087 	ld	a,#0x04+1
   0943 18 05              3088 	jr	00106$
   0945                    3089 00105$:
   0945 B7                 3090 	or	a,a
   0946 CB 11              3091 	rl	c
   0948 CB 10              3092 	rl	b
   094A                    3093 00106$:
   094A 3D                 3094 	dec	a
   094B 20 F8              3095 	jr	nz,00105$
                           3096 ; genOr
                           3097 ; AOP_STK for _NR43_sloc0_1_0
                           3098 ; Type res[2] = l[5]&r[2]
                           3099 ; Size res[2] = l[2]&r[2]
   094D 79                 3100 	ld	a,c
   094E F8 00              3101 	lda	hl,0(sp)
   0950 B6                 3102 	or	a,(hl)
   0951 4F                 3103 	ld	c,a
   0952 78                 3104 	ld	a,b
   0953 23                 3105 	inc	hl
   0954 B6                 3106 	or	a,(hl)
   0955 47                 3107 	ld	b,a
                           3108 ; genCast
                           3109 ; Removed redundent load
                           3110 ; genRet
   0956 59                 3111 	ld	e,c
                           3112 ; genLabel
   0957                    3113 00101$:
                           3114 ; genEndFunction
   0957 E8 02              3115 	lda	sp,2(sp)
   0959 C1                 3116 	pop	bc
   095A C9                 3117 	ret
   095B                    3118 ___NR43_end:
                           3119 ;	sound.c 394
                           3120 ; genLabel
                           3121 ; genFunction
                           3122 ;	---------------------------------
                           3123 ; Function NR44
                           3124 ; ---------------------------------
   095B                    3125 ___NR44_start:
   095B                    3126 _NR44:
   095B C5                 3127 	push	bc
   095C E8 FE              3128 	lda	sp,-2(sp)
                           3129 ;	sound.c 395
                           3130 ; genAssign
                           3131 ; AOP_HL for _soundReg
   095E 21 0E 00           3132 	ld	hl,#_soundReg + 0
   0961 4E                 3133 	ld	c,(hl)
   0962 23                 3134 	inc	hl
   0963 46                 3135 	ld	b,(hl)
                           3136 ; genPlus
                           3137 ; genPlusIncr
                           3138 ;	genPlusIncr failed
   0964 79                 3139 	ld	a,c
   0965 C6 5C              3140 	add	a,#0x5C
   0967 5F                 3141 	ld	e,a
   0968 78                 3142 	ld	a,b
   0969 CE 00              3143 	adc	a,#0x00
   096B 57                 3144 	ld	d,a
                           3145 ; genPointerGet
                           3146 ; Removed redundent load
                           3147 ; Removed redundent load
   096C 1A                 3148 	ld	a,(de)
   096D 4F                 3149 	ld	c,a
   096E 13                 3150 	inc	de
   096F 1A                 3151 	ld	a,(de)
   0970 47                 3152 	ld	b,a
                           3153 ; genLeftShift
                           3154 ; AOP_STK for _NR44_sloc0_1_0
   0971 F8 00              3155 	lda	hl,0(sp)
   0973 71                 3156 	ld	(hl),c
   0974 23                 3157 	inc	hl
   0975 70                 3158 	ld	(hl),b
   0976 3E 07              3159 	ld	a,#0x06+1
   0978 18 08              3160 	jr	00104$
   097A                    3161 00103$:
   097A B7                 3162 	or	a,a
   097B F8 00              3163 	lda	hl,0(sp)
   097D CB 16              3164 	rl	(hl)
   097F 23                 3165 	inc	hl
   0980 CB 16              3166 	rl	(hl)
   0982                    3167 00104$:
   0982 3D                 3168 	dec	a
   0983 20 F5              3169 	jr	nz,00103$
                           3170 ; genAssign
                           3171 ; AOP_HL for _soundReg
   0985 21 0E 00           3172 	ld	hl,#_soundReg + 0
   0988 4E                 3173 	ld	c,(hl)
   0989 23                 3174 	inc	hl
   098A 46                 3175 	ld	b,(hl)
                           3176 ; genPlus
                           3177 ; genPlusIncr
                           3178 ;	genPlusIncr failed
   098B 79                 3179 	ld	a,c
   098C C6 5E              3180 	add	a,#0x5E
   098E 5F                 3181 	ld	e,a
   098F 78                 3182 	ld	a,b
   0990 CE 00              3183 	adc	a,#0x00
   0992 57                 3184 	ld	d,a
                           3185 ; genPointerGet
                           3186 ; Removed redundent load
                           3187 ; Removed redundent load
   0993 1A                 3188 	ld	a,(de)
   0994 4F                 3189 	ld	c,a
   0995 13                 3190 	inc	de
   0996 1A                 3191 	ld	a,(de)
   0997 47                 3192 	ld	b,a
                           3193 ; genLeftShift
   0998 3E 08              3194 	ld	a,#0x07+1
   099A 18 05              3195 	jr	00106$
   099C                    3196 00105$:
   099C B7                 3197 	or	a,a
   099D CB 11              3198 	rl	c
   099F CB 10              3199 	rl	b
   09A1                    3200 00106$:
   09A1 3D                 3201 	dec	a
   09A2 20 F8              3202 	jr	nz,00105$
                           3203 ; genOr
                           3204 ; AOP_STK for _NR44_sloc0_1_0
                           3205 ; Type res[2] = l[5]&r[2]
                           3206 ; Size res[2] = l[2]&r[2]
   09A4 79                 3207 	ld	a,c
   09A5 F8 00              3208 	lda	hl,0(sp)
   09A7 B6                 3209 	or	a,(hl)
   09A8 4F                 3210 	ld	c,a
   09A9 78                 3211 	ld	a,b
   09AA 23                 3212 	inc	hl
   09AB B6                 3213 	or	a,(hl)
   09AC 47                 3214 	ld	b,a
                           3215 ; genCast
                           3216 ; Removed redundent load
                           3217 ; genRet
   09AD 59                 3218 	ld	e,c
                           3219 ; genLabel
   09AE                    3220 00101$:
                           3221 ; genEndFunction
   09AE E8 02              3222 	lda	sp,2(sp)
   09B0 C1                 3223 	pop	bc
   09B1 C9                 3224 	ret
   09B2                    3225 ___NR44_end:
                           3226 ;	sound.c 399
                           3227 ; genLabel
                           3228 ; genFunction
                           3229 ;	---------------------------------
                           3230 ; Function NR50
                           3231 ; ---------------------------------
   09B2                    3232 ___NR50_start:
   09B2                    3233 _NR50:
   09B2 C5                 3234 	push	bc
   09B3 E8 FE              3235 	lda	sp,-2(sp)
                           3236 ;	sound.c 400
                           3237 ; genAssign
                           3238 ; AOP_HL for _soundReg
   09B5 21 0E 00           3239 	ld	hl,#_soundReg + 0
   09B8 4E                 3240 	ld	c,(hl)
   09B9 23                 3241 	inc	hl
   09BA 46                 3242 	ld	b,(hl)
                           3243 ; genPlus
                           3244 ; genPlusIncr
                           3245 ;	genPlusIncr failed
   09BB 79                 3246 	ld	a,c
   09BC C6 60              3247 	add	a,#0x60
   09BE 5F                 3248 	ld	e,a
   09BF 78                 3249 	ld	a,b
   09C0 CE 00              3250 	adc	a,#0x00
   09C2 57                 3251 	ld	d,a
                           3252 ; genPointerGet
                           3253 ; AOP_STK for _NR50_sloc0_1_0
                           3254 ; Removed redundent load
                           3255 ; Removed redundent load
   09C3 1A                 3256 	ld	a,(de)
   09C4 F8 00              3257 	lda	hl,0(sp)
   09C6 77                 3258 	ld	(hl),a
   09C7 13                 3259 	inc	de
   09C8 1A                 3260 	ld	a,(de)
   09C9 23                 3261 	inc	hl
   09CA 77                 3262 	ld	(hl),a
                           3263 ; genAssign
                           3264 ; AOP_HL for _soundReg
   09CB 21 0E 00           3265 	ld	hl,#_soundReg + 0
   09CE 4E                 3266 	ld	c,(hl)
   09CF 23                 3267 	inc	hl
   09D0 46                 3268 	ld	b,(hl)
                           3269 ; genPlus
                           3270 ; genPlusIncr
                           3271 ;	genPlusIncr failed
   09D1 79                 3272 	ld	a,c
   09D2 C6 62              3273 	add	a,#0x62
   09D4 5F                 3274 	ld	e,a
   09D5 78                 3275 	ld	a,b
   09D6 CE 00              3276 	adc	a,#0x00
   09D8 57                 3277 	ld	d,a
                           3278 ; genPointerGet
                           3279 ; Removed redundent load
                           3280 ; Removed redundent load
   09D9 1A                 3281 	ld	a,(de)
   09DA 4F                 3282 	ld	c,a
   09DB 13                 3283 	inc	de
   09DC 1A                 3284 	ld	a,(de)
   09DD 47                 3285 	ld	b,a
                           3286 ; genLeftShift
   09DE 3E 04              3287 	ld	a,#0x03+1
   09E0 18 05              3288 	jr	00104$
   09E2                    3289 00103$:
   09E2 B7                 3290 	or	a,a
   09E3 CB 11              3291 	rl	c
   09E5 CB 10              3292 	rl	b
   09E7                    3293 00104$:
   09E7 3D                 3294 	dec	a
   09E8 20 F8              3295 	jr	nz,00103$
                           3296 ; genOr
                           3297 ; AOP_STK for _NR50_sloc0_1_0
                           3298 ; Type res[5] = l[5]&r[2]
                           3299 ; Size res[2] = l[2]&r[2]
   09EA F8 00              3300 	lda	hl,0(sp)
   09EC 7E                 3301 	ld	a,(hl)
   09ED B1                 3302 	or	a,c
   09EE 22                 3303 	ld	(hl+),a
   09EF 7E                 3304 	ld	a,(hl)
   09F0 B0                 3305 	or	a,b
   09F1 77                 3306 	ld	(hl),a
                           3307 ; genAssign
                           3308 ; AOP_HL for _soundReg
   09F2 21 0E 00           3309 	ld	hl,#_soundReg + 0
   09F5 4E                 3310 	ld	c,(hl)
   09F6 23                 3311 	inc	hl
   09F7 46                 3312 	ld	b,(hl)
                           3313 ; genPlus
                           3314 ; genPlusIncr
                           3315 ;	genPlusIncr failed
   09F8 79                 3316 	ld	a,c
   09F9 C6 64              3317 	add	a,#0x64
   09FB 5F                 3318 	ld	e,a
   09FC 78                 3319 	ld	a,b
   09FD CE 00              3320 	adc	a,#0x00
   09FF 57                 3321 	ld	d,a
                           3322 ; genPointerGet
                           3323 ; Removed redundent load
                           3324 ; Removed redundent load
   0A00 1A                 3325 	ld	a,(de)
   0A01 4F                 3326 	ld	c,a
   0A02 13                 3327 	inc	de
   0A03 1A                 3328 	ld	a,(de)
   0A04 47                 3329 	ld	b,a
                           3330 ; genLeftShift
   0A05 3E 05              3331 	ld	a,#0x04+1
   0A07 18 05              3332 	jr	00106$
   0A09                    3333 00105$:
   0A09 B7                 3334 	or	a,a
   0A0A CB 11              3335 	rl	c
   0A0C CB 10              3336 	rl	b
   0A0E                    3337 00106$:
   0A0E 3D                 3338 	dec	a
   0A0F 20 F8              3339 	jr	nz,00105$
                           3340 ; genOr
                           3341 ; AOP_STK for _NR50_sloc0_1_0
                           3342 ; Type res[5] = l[5]&r[2]
                           3343 ; Size res[2] = l[2]&r[2]
   0A11 F8 00              3344 	lda	hl,0(sp)
   0A13 7E                 3345 	ld	a,(hl)
   0A14 B1                 3346 	or	a,c
   0A15 22                 3347 	ld	(hl+),a
   0A16 7E                 3348 	ld	a,(hl)
   0A17 B0                 3349 	or	a,b
   0A18 77                 3350 	ld	(hl),a
                           3351 ;	sound.c 401
                           3352 ; genAssign
                           3353 ; AOP_HL for _soundReg
   0A19 21 0E 00           3354 	ld	hl,#_soundReg + 0
   0A1C 4E                 3355 	ld	c,(hl)
   0A1D 23                 3356 	inc	hl
   0A1E 46                 3357 	ld	b,(hl)
                           3358 ; genPlus
                           3359 ; genPlusIncr
                           3360 ;	genPlusIncr failed
   0A1F 79                 3361 	ld	a,c
   0A20 C6 66              3362 	add	a,#0x66
   0A22 5F                 3363 	ld	e,a
   0A23 78                 3364 	ld	a,b
   0A24 CE 00              3365 	adc	a,#0x00
   0A26 57                 3366 	ld	d,a
                           3367 ; genPointerGet
                           3368 ; Removed redundent load
                           3369 ; Removed redundent load
   0A27 1A                 3370 	ld	a,(de)
   0A28 4F                 3371 	ld	c,a
   0A29 13                 3372 	inc	de
   0A2A 1A                 3373 	ld	a,(de)
   0A2B 47                 3374 	ld	b,a
                           3375 ; genLeftShift
   0A2C 3E 08              3376 	ld	a,#0x07+1
   0A2E 18 05              3377 	jr	00108$
   0A30                    3378 00107$:
   0A30 B7                 3379 	or	a,a
   0A31 CB 11              3380 	rl	c
   0A33 CB 10              3381 	rl	b
   0A35                    3382 00108$:
   0A35 3D                 3383 	dec	a
   0A36 20 F8              3384 	jr	nz,00107$
                           3385 ; genOr
                           3386 ; AOP_STK for _NR50_sloc0_1_0
                           3387 ; Type res[2] = l[5]&r[2]
                           3388 ; Size res[2] = l[2]&r[2]
   0A38 79                 3389 	ld	a,c
   0A39 F8 00              3390 	lda	hl,0(sp)
   0A3B B6                 3391 	or	a,(hl)
   0A3C 4F                 3392 	ld	c,a
   0A3D 78                 3393 	ld	a,b
   0A3E 23                 3394 	inc	hl
   0A3F B6                 3395 	or	a,(hl)
   0A40 47                 3396 	ld	b,a
                           3397 ; genCast
                           3398 ; Removed redundent load
                           3399 ; genRet
   0A41 59                 3400 	ld	e,c
                           3401 ; genLabel
   0A42                    3402 00101$:
                           3403 ; genEndFunction
   0A42 E8 02              3404 	lda	sp,2(sp)
   0A44 C1                 3405 	pop	bc
   0A45 C9                 3406 	ret
   0A46                    3407 ___NR50_end:
                           3408 ;	sound.c 404
                           3409 ; genLabel
                           3410 ; genFunction
                           3411 ;	---------------------------------
                           3412 ; Function NR51
                           3413 ; ---------------------------------
   0A46                    3414 ___NR51_start:
   0A46                    3415 _NR51:
   0A46 C5                 3416 	push	bc
   0A47 E8 FE              3417 	lda	sp,-2(sp)
                           3418 ;	sound.c 405
                           3419 ; genAssign
                           3420 ; AOP_HL for _soundReg
   0A49 21 0E 00           3421 	ld	hl,#_soundReg + 0
   0A4C 4E                 3422 	ld	c,(hl)
   0A4D 23                 3423 	inc	hl
   0A4E 46                 3424 	ld	b,(hl)
                           3425 ; genPlus
                           3426 ; genPlusIncr
                           3427 ;	genPlusIncr failed
   0A4F 79                 3428 	ld	a,c
   0A50 C6 68              3429 	add	a,#0x68
   0A52 5F                 3430 	ld	e,a
   0A53 78                 3431 	ld	a,b
   0A54 CE 00              3432 	adc	a,#0x00
   0A56 57                 3433 	ld	d,a
                           3434 ; genPointerGet
                           3435 ; AOP_STK for _NR51_sloc0_1_0
                           3436 ; Removed redundent load
                           3437 ; Removed redundent load
   0A57 1A                 3438 	ld	a,(de)
   0A58 F8 00              3439 	lda	hl,0(sp)
   0A5A 77                 3440 	ld	(hl),a
   0A5B 13                 3441 	inc	de
   0A5C 1A                 3442 	ld	a,(de)
   0A5D 23                 3443 	inc	hl
   0A5E 77                 3444 	ld	(hl),a
                           3445 ; genAssign
                           3446 ; AOP_HL for _soundReg
   0A5F 21 0E 00           3447 	ld	hl,#_soundReg + 0
   0A62 4E                 3448 	ld	c,(hl)
   0A63 23                 3449 	inc	hl
   0A64 46                 3450 	ld	b,(hl)
                           3451 ; genPlus
                           3452 ; genPlusIncr
                           3453 ;	genPlusIncr failed
   0A65 79                 3454 	ld	a,c
   0A66 C6 6A              3455 	add	a,#0x6A
   0A68 5F                 3456 	ld	e,a
   0A69 78                 3457 	ld	a,b
   0A6A CE 00              3458 	adc	a,#0x00
   0A6C 57                 3459 	ld	d,a
                           3460 ; genPointerGet
                           3461 ; Removed redundent load
                           3462 ; Removed redundent load
   0A6D 1A                 3463 	ld	a,(de)
   0A6E 4F                 3464 	ld	c,a
   0A6F 13                 3465 	inc	de
   0A70 1A                 3466 	ld	a,(de)
   0A71 47                 3467 	ld	b,a
                           3468 ; genLeftShift
   0A72 B7                 3469 	or	a,a
   0A73 CB 11              3470 	rl	c
   0A75 CB 10              3471 	rl	b
                           3472 ; genOr
                           3473 ; AOP_STK for _NR51_sloc0_1_0
                           3474 ; Type res[5] = l[5]&r[2]
                           3475 ; Size res[2] = l[2]&r[2]
   0A77 F8 00              3476 	lda	hl,0(sp)
   0A79 7E                 3477 	ld	a,(hl)
   0A7A B1                 3478 	or	a,c
   0A7B 22                 3479 	ld	(hl+),a
   0A7C 7E                 3480 	ld	a,(hl)
   0A7D B0                 3481 	or	a,b
   0A7E 77                 3482 	ld	(hl),a
                           3483 ; genAssign
                           3484 ; AOP_HL for _soundReg
   0A7F 21 0E 00           3485 	ld	hl,#_soundReg + 0
   0A82 4E                 3486 	ld	c,(hl)
   0A83 23                 3487 	inc	hl
   0A84 46                 3488 	ld	b,(hl)
                           3489 ; genPlus
                           3490 ; genPlusIncr
                           3491 ;	genPlusIncr failed
   0A85 79                 3492 	ld	a,c
   0A86 C6 6C              3493 	add	a,#0x6C
   0A88 5F                 3494 	ld	e,a
   0A89 78                 3495 	ld	a,b
   0A8A CE 00              3496 	adc	a,#0x00
   0A8C 57                 3497 	ld	d,a
                           3498 ; genPointerGet
                           3499 ; Removed redundent load
                           3500 ; Removed redundent load
   0A8D 1A                 3501 	ld	a,(de)
   0A8E 4F                 3502 	ld	c,a
   0A8F 13                 3503 	inc	de
   0A90 1A                 3504 	ld	a,(de)
   0A91 47                 3505 	ld	b,a
                           3506 ; genLeftShift
   0A92 3E 03              3507 	ld	a,#0x02+1
   0A94 18 05              3508 	jr	00106$
   0A96                    3509 00105$:
   0A96 B7                 3510 	or	a,a
   0A97 CB 11              3511 	rl	c
   0A99 CB 10              3512 	rl	b
   0A9B                    3513 00106$:
   0A9B 3D                 3514 	dec	a
   0A9C 20 F8              3515 	jr	nz,00105$
                           3516 ; genOr
                           3517 ; AOP_STK for _NR51_sloc0_1_0
                           3518 ; Type res[5] = l[5]&r[2]
                           3519 ; Size res[2] = l[2]&r[2]
   0A9E F8 00              3520 	lda	hl,0(sp)
   0AA0 7E                 3521 	ld	a,(hl)
   0AA1 B1                 3522 	or	a,c
   0AA2 22                 3523 	ld	(hl+),a
   0AA3 7E                 3524 	ld	a,(hl)
   0AA4 B0                 3525 	or	a,b
   0AA5 77                 3526 	ld	(hl),a
                           3527 ;	sound.c 406
                           3528 ; genAssign
                           3529 ; AOP_HL for _soundReg
   0AA6 21 0E 00           3530 	ld	hl,#_soundReg + 0
   0AA9 4E                 3531 	ld	c,(hl)
   0AAA 23                 3532 	inc	hl
   0AAB 46                 3533 	ld	b,(hl)
                           3534 ; genPlus
                           3535 ; genPlusIncr
                           3536 ;	genPlusIncr failed
   0AAC 79                 3537 	ld	a,c
   0AAD C6 6E              3538 	add	a,#0x6E
   0AAF 5F                 3539 	ld	e,a
   0AB0 78                 3540 	ld	a,b
   0AB1 CE 00              3541 	adc	a,#0x00
   0AB3 57                 3542 	ld	d,a
                           3543 ; genPointerGet
                           3544 ; Removed redundent load
                           3545 ; Removed redundent load
   0AB4 1A                 3546 	ld	a,(de)
   0AB5 4F                 3547 	ld	c,a
   0AB6 13                 3548 	inc	de
   0AB7 1A                 3549 	ld	a,(de)
   0AB8 47                 3550 	ld	b,a
                           3551 ; genLeftShift
   0AB9 3E 04              3552 	ld	a,#0x03+1
   0ABB 18 05              3553 	jr	00108$
   0ABD                    3554 00107$:
   0ABD B7                 3555 	or	a,a
   0ABE CB 11              3556 	rl	c
   0AC0 CB 10              3557 	rl	b
   0AC2                    3558 00108$:
   0AC2 3D                 3559 	dec	a
   0AC3 20 F8              3560 	jr	nz,00107$
                           3561 ; genOr
                           3562 ; AOP_STK for _NR51_sloc0_1_0
                           3563 ; Type res[5] = l[5]&r[2]
                           3564 ; Size res[2] = l[2]&r[2]
   0AC5 F8 00              3565 	lda	hl,0(sp)
   0AC7 7E                 3566 	ld	a,(hl)
   0AC8 B1                 3567 	or	a,c
   0AC9 22                 3568 	ld	(hl+),a
   0ACA 7E                 3569 	ld	a,(hl)
   0ACB B0                 3570 	or	a,b
   0ACC 77                 3571 	ld	(hl),a
                           3572 ; genAssign
                           3573 ; AOP_HL for _soundReg
   0ACD 21 0E 00           3574 	ld	hl,#_soundReg + 0
   0AD0 4E                 3575 	ld	c,(hl)
   0AD1 23                 3576 	inc	hl
   0AD2 46                 3577 	ld	b,(hl)
                           3578 ; genPlus
                           3579 ; genPlusIncr
                           3580 ;	genPlusIncr failed
   0AD3 79                 3581 	ld	a,c
   0AD4 C6 70              3582 	add	a,#0x70
   0AD6 5F                 3583 	ld	e,a
   0AD7 78                 3584 	ld	a,b
   0AD8 CE 00              3585 	adc	a,#0x00
   0ADA 57                 3586 	ld	d,a
                           3587 ; genPointerGet
                           3588 ; Removed redundent load
                           3589 ; Removed redundent load
   0ADB 1A                 3590 	ld	a,(de)
   0ADC 4F                 3591 	ld	c,a
   0ADD 13                 3592 	inc	de
   0ADE 1A                 3593 	ld	a,(de)
   0ADF 47                 3594 	ld	b,a
                           3595 ; genLeftShift
   0AE0 3E 05              3596 	ld	a,#0x04+1
   0AE2 18 05              3597 	jr	00110$
   0AE4                    3598 00109$:
   0AE4 B7                 3599 	or	a,a
   0AE5 CB 11              3600 	rl	c
   0AE7 CB 10              3601 	rl	b
   0AE9                    3602 00110$:
   0AE9 3D                 3603 	dec	a
   0AEA 20 F8              3604 	jr	nz,00109$
                           3605 ; genOr
                           3606 ; AOP_STK for _NR51_sloc0_1_0
                           3607 ; Type res[5] = l[5]&r[2]
                           3608 ; Size res[2] = l[2]&r[2]
   0AEC F8 00              3609 	lda	hl,0(sp)
   0AEE 7E                 3610 	ld	a,(hl)
   0AEF B1                 3611 	or	a,c
   0AF0 22                 3612 	ld	(hl+),a
   0AF1 7E                 3613 	ld	a,(hl)
   0AF2 B0                 3614 	or	a,b
   0AF3 77                 3615 	ld	(hl),a
                           3616 ; genAssign
                           3617 ; AOP_HL for _soundReg
   0AF4 21 0E 00           3618 	ld	hl,#_soundReg + 0
   0AF7 4E                 3619 	ld	c,(hl)
   0AF8 23                 3620 	inc	hl
   0AF9 46                 3621 	ld	b,(hl)
                           3622 ; genPlus
                           3623 ; genPlusIncr
                           3624 ;	genPlusIncr failed
   0AFA 79                 3625 	ld	a,c
   0AFB C6 72              3626 	add	a,#0x72
   0AFD 5F                 3627 	ld	e,a
   0AFE 78                 3628 	ld	a,b
   0AFF CE 00              3629 	adc	a,#0x00
   0B01 57                 3630 	ld	d,a
                           3631 ; genPointerGet
                           3632 ; Removed redundent load
                           3633 ; Removed redundent load
   0B02 1A                 3634 	ld	a,(de)
   0B03 4F                 3635 	ld	c,a
   0B04 13                 3636 	inc	de
   0B05 1A                 3637 	ld	a,(de)
   0B06 47                 3638 	ld	b,a
                           3639 ; genLeftShift
   0B07 3E 06              3640 	ld	a,#0x05+1
   0B09 18 05              3641 	jr	00112$
   0B0B                    3642 00111$:
   0B0B B7                 3643 	or	a,a
   0B0C CB 11              3644 	rl	c
   0B0E CB 10              3645 	rl	b
   0B10                    3646 00112$:
   0B10 3D                 3647 	dec	a
   0B11 20 F8              3648 	jr	nz,00111$
                           3649 ; genOr
                           3650 ; AOP_STK for _NR51_sloc0_1_0
                           3651 ; Type res[5] = l[5]&r[2]
                           3652 ; Size res[2] = l[2]&r[2]
   0B13 F8 00              3653 	lda	hl,0(sp)
   0B15 7E                 3654 	ld	a,(hl)
   0B16 B1                 3655 	or	a,c
   0B17 22                 3656 	ld	(hl+),a
   0B18 7E                 3657 	ld	a,(hl)
   0B19 B0                 3658 	or	a,b
   0B1A 77                 3659 	ld	(hl),a
                           3660 ;	sound.c 407
                           3661 ; genAssign
                           3662 ; AOP_HL for _soundReg
   0B1B 21 0E 00           3663 	ld	hl,#_soundReg + 0
   0B1E 4E                 3664 	ld	c,(hl)
   0B1F 23                 3665 	inc	hl
   0B20 46                 3666 	ld	b,(hl)
                           3667 ; genPlus
                           3668 ; genPlusIncr
                           3669 ;	genPlusIncr failed
   0B21 79                 3670 	ld	a,c
   0B22 C6 74              3671 	add	a,#0x74
   0B24 5F                 3672 	ld	e,a
   0B25 78                 3673 	ld	a,b
   0B26 CE 00              3674 	adc	a,#0x00
   0B28 57                 3675 	ld	d,a
                           3676 ; genPointerGet
                           3677 ; Removed redundent load
                           3678 ; Removed redundent load
   0B29 1A                 3679 	ld	a,(de)
   0B2A 4F                 3680 	ld	c,a
   0B2B 13                 3681 	inc	de
   0B2C 1A                 3682 	ld	a,(de)
   0B2D 47                 3683 	ld	b,a
                           3684 ; genLeftShift
   0B2E 3E 07              3685 	ld	a,#0x06+1
   0B30 18 05              3686 	jr	00114$
   0B32                    3687 00113$:
   0B32 B7                 3688 	or	a,a
   0B33 CB 11              3689 	rl	c
   0B35 CB 10              3690 	rl	b
   0B37                    3691 00114$:
   0B37 3D                 3692 	dec	a
   0B38 20 F8              3693 	jr	nz,00113$
                           3694 ; genOr
                           3695 ; AOP_STK for _NR51_sloc0_1_0
                           3696 ; Type res[5] = l[5]&r[2]
                           3697 ; Size res[2] = l[2]&r[2]
   0B3A F8 00              3698 	lda	hl,0(sp)
   0B3C 7E                 3699 	ld	a,(hl)
   0B3D B1                 3700 	or	a,c
   0B3E 22                 3701 	ld	(hl+),a
   0B3F 7E                 3702 	ld	a,(hl)
   0B40 B0                 3703 	or	a,b
   0B41 77                 3704 	ld	(hl),a
                           3705 ; genAssign
                           3706 ; AOP_HL for _soundReg
   0B42 21 0E 00           3707 	ld	hl,#_soundReg + 0
   0B45 4E                 3708 	ld	c,(hl)
   0B46 23                 3709 	inc	hl
   0B47 46                 3710 	ld	b,(hl)
                           3711 ; genPlus
                           3712 ; genPlusIncr
                           3713 ;	genPlusIncr failed
   0B48 79                 3714 	ld	a,c
   0B49 C6 76              3715 	add	a,#0x76
   0B4B 5F                 3716 	ld	e,a
   0B4C 78                 3717 	ld	a,b
   0B4D CE 00              3718 	adc	a,#0x00
   0B4F 57                 3719 	ld	d,a
                           3720 ; genPointerGet
                           3721 ; Removed redundent load
                           3722 ; Removed redundent load
   0B50 1A                 3723 	ld	a,(de)
   0B51 4F                 3724 	ld	c,a
   0B52 13                 3725 	inc	de
   0B53 1A                 3726 	ld	a,(de)
   0B54 47                 3727 	ld	b,a
                           3728 ; genLeftShift
   0B55 3E 08              3729 	ld	a,#0x07+1
   0B57 18 05              3730 	jr	00116$
   0B59                    3731 00115$:
   0B59 B7                 3732 	or	a,a
   0B5A CB 11              3733 	rl	c
   0B5C CB 10              3734 	rl	b
   0B5E                    3735 00116$:
   0B5E 3D                 3736 	dec	a
   0B5F 20 F8              3737 	jr	nz,00115$
                           3738 ; genOr
                           3739 ; AOP_STK for _NR51_sloc0_1_0
                           3740 ; Type res[2] = l[5]&r[2]
                           3741 ; Size res[2] = l[2]&r[2]
   0B61 79                 3742 	ld	a,c
   0B62 F8 00              3743 	lda	hl,0(sp)
   0B64 B6                 3744 	or	a,(hl)
   0B65 4F                 3745 	ld	c,a
   0B66 78                 3746 	ld	a,b
   0B67 23                 3747 	inc	hl
   0B68 B6                 3748 	or	a,(hl)
   0B69 47                 3749 	ld	b,a
                           3750 ; genCast
                           3751 ; Removed redundent load
                           3752 ; genRet
   0B6A 59                 3753 	ld	e,c
                           3754 ; genLabel
   0B6B                    3755 00101$:
                           3756 ; genEndFunction
   0B6B E8 02              3757 	lda	sp,2(sp)
   0B6D C1                 3758 	pop	bc
   0B6E C9                 3759 	ret
   0B6F                    3760 ___NR51_end:
                           3761 ;	sound.c 410
                           3762 ; genLabel
                           3763 ; genFunction
                           3764 ;	---------------------------------
                           3765 ; Function NR52
                           3766 ; ---------------------------------
   0B6F                    3767 ___NR52_start:
   0B6F                    3768 _NR52:
   0B6F C5                 3769 	push	bc
                           3770 	
                           3771 ;	sound.c 411
                           3772 ; genAssign
                           3773 ; AOP_HL for _soundReg
   0B70 21 0E 00           3774 	ld	hl,#_soundReg + 0
   0B73 4E                 3775 	ld	c,(hl)
   0B74 23                 3776 	inc	hl
   0B75 46                 3777 	ld	b,(hl)
                           3778 ; genPlus
                           3779 ; genPlusIncr
                           3780 ;	genPlusIncr failed
   0B76 79                 3781 	ld	a,c
   0B77 C6 82              3782 	add	a,#0x82
   0B79 5F                 3783 	ld	e,a
   0B7A 78                 3784 	ld	a,b
   0B7B CE 00              3785 	adc	a,#0x00
   0B7D 57                 3786 	ld	d,a
                           3787 ; genPointerGet
                           3788 ; Removed redundent load
                           3789 ; Removed redundent load
   0B7E 1A                 3790 	ld	a,(de)
   0B7F 4F                 3791 	ld	c,a
   0B80 13                 3792 	inc	de
   0B81 1A                 3793 	ld	a,(de)
   0B82 47                 3794 	ld	b,a
                           3795 ; genLeftShift
   0B83 3E 08              3796 	ld	a,#0x07+1
   0B85 18 05              3797 	jr	00104$
   0B87                    3798 00103$:
   0B87 B7                 3799 	or	a,a
   0B88 CB 11              3800 	rl	c
   0B8A CB 10              3801 	rl	b
   0B8C                    3802 00104$:
   0B8C 3D                 3803 	dec	a
   0B8D 20 F8              3804 	jr	nz,00103$
                           3805 ; genCast
                           3806 ; Removed redundent load
                           3807 ; genRet
   0B8F 59                 3808 	ld	e,c
                           3809 ; genLabel
   0B90                    3810 00101$:
                           3811 ; genEndFunction
                           3812 	
   0B90 C1                 3813 	pop	bc
   0B91 C9                 3814 	ret
   0B92                    3815 ___NR52_end:
                           3816 ;	sound.c 415
                           3817 ; genLabel
                           3818 ; genFunction
                           3819 ;	---------------------------------
                           3820 ; Function current_value
                           3821 ; ---------------------------------
   0B92                    3822 ___current_value_start:
   0B92                    3823 _current_value:
   0B92 C5                 3824 	push	bc
   0B93 E8 FE              3825 	lda	sp,-2(sp)
                           3826 ;	sound.c 417
                           3827 ; genCmpEq
                           3828 ; AOP_STK for 
   0B95 F8 06              3829 	lda	hl,6(sp)
   0B97 7E                 3830 	ld	a,(hl)
   0B98 B7                 3831 	or	a,a
   0B99 C2 9E 0B           3832 	jp	nz,00213$
   0B9C 18 03              3833 	jr	00214$
   0B9E                    3834 00213$:
   0B9E C3 3B 0C           3835 	jp	00168$
   0BA1                    3836 00214$:
                           3837 ;	sound.c 418
                           3838 ; genCmpGt
                           3839 ; AOP_STK for 
   0BA1 AF                 3840 	xor	a,a
   0BA2 3E 04              3841 	ld	a,#0x04
   0BA4 F8 07              3842 	lda	hl,7(sp)
   0BA6 9E                 3843 	sbc	a,(hl) ; 2
   0BA7 DA 03 12           3844 	jp	c,00169$
                           3845 ; genJumpTab
                           3846 ; AOP_STK for 
   0BAA 5E                 3847 	ld	e,(hl)
   0BAB 16 00              3848 	ld	d,#0x00
   0BAD 21 B4 0B           3849 	ld	hl,#00215$
   0BB0 19                 3850 	add	hl,de
   0BB1 19                 3851 	add	hl,de
   0BB2 19                 3852 	add	hl,de
   0BB3 E9                 3853 	jp	(hl)
   0BB4                    3854 00215$:
   0BB4 C3 C3 0B           3855 	jp	00101$
   0BB7 C3 DB 0B           3856 	jp	00102$
   0BBA C3 F3 0B           3857 	jp	00103$
   0BBD C3 0B 0C           3858 	jp	00104$
   0BC0 C3 23 0C           3859 	jp	00105$
                           3860 ;	sound.c 421
                           3861 ; genLabel
   0BC3                    3862 00101$:
                           3863 ; genAssign
                           3864 ; AOP_HL for _soundReg
   0BC3 21 0E 00           3865 	ld	hl,#_soundReg + 0
   0BC6 4E                 3866 	ld	c,(hl)
   0BC7 23                 3867 	inc	hl
   0BC8 46                 3868 	ld	b,(hl)
                           3869 ; genPlus
                           3870 ; genPlusIncr
                           3871 ;	genPlusIncr failed
   0BC9 79                 3872 	ld	a,c
   0BCA C6 82              3873 	add	a,#0x82
   0BCC 5F                 3874 	ld	e,a
   0BCD 78                 3875 	ld	a,b
   0BCE CE 00              3876 	adc	a,#0x00
   0BD0 57                 3877 	ld	d,a
                           3878 ; genPointerGet
                           3879 ; Removed redundent load
                           3880 ; Removed redundent load
   0BD1 1A                 3881 	ld	a,(de)
   0BD2 4F                 3882 	ld	c,a
   0BD3 13                 3883 	inc	de
   0BD4 1A                 3884 	ld	a,(de)
   0BD5 47                 3885 	ld	b,a
                           3886 ; genRet
   0BD6 59                 3887 	ld	e,c
   0BD7 50                 3888 	ld	d,b
   0BD8 C3 06 12           3889 	jp	00170$
                           3890 ;	sound.c 423
                           3891 ; genLabel
   0BDB                    3892 00102$:
                           3893 ; genAssign
                           3894 ; AOP_HL for _soundReg
   0BDB 21 0E 00           3895 	ld	hl,#_soundReg + 0
   0BDE 4E                 3896 	ld	c,(hl)
   0BDF 23                 3897 	inc	hl
   0BE0 46                 3898 	ld	b,(hl)
                           3899 ; genPlus
                           3900 ; genPlusIncr
                           3901 ;	genPlusIncr failed
   0BE1 79                 3902 	ld	a,c
   0BE2 C6 62              3903 	add	a,#0x62
   0BE4 5F                 3904 	ld	e,a
   0BE5 78                 3905 	ld	a,b
   0BE6 CE 00              3906 	adc	a,#0x00
   0BE8 57                 3907 	ld	d,a
                           3908 ; genPointerGet
                           3909 ; Removed redundent load
                           3910 ; Removed redundent load
   0BE9 1A                 3911 	ld	a,(de)
   0BEA 4F                 3912 	ld	c,a
   0BEB 13                 3913 	inc	de
   0BEC 1A                 3914 	ld	a,(de)
   0BED 47                 3915 	ld	b,a
                           3916 ; genRet
   0BEE 59                 3917 	ld	e,c
   0BEF 50                 3918 	ld	d,b
   0BF0 C3 06 12           3919 	jp	00170$
                           3920 ;	sound.c 425
                           3921 ; genLabel
   0BF3                    3922 00103$:
                           3923 ; genAssign
                           3924 ; AOP_HL for _soundReg
   0BF3 21 0E 00           3925 	ld	hl,#_soundReg + 0
   0BF6 4E                 3926 	ld	c,(hl)
   0BF7 23                 3927 	inc	hl
   0BF8 46                 3928 	ld	b,(hl)
                           3929 ; genPlus
                           3930 ; genPlusIncr
                           3931 ;	genPlusIncr failed
   0BF9 79                 3932 	ld	a,c
   0BFA C6 66              3933 	add	a,#0x66
   0BFC 5F                 3934 	ld	e,a
   0BFD 78                 3935 	ld	a,b
   0BFE CE 00              3936 	adc	a,#0x00
   0C00 57                 3937 	ld	d,a
                           3938 ; genPointerGet
                           3939 ; Removed redundent load
                           3940 ; Removed redundent load
   0C01 1A                 3941 	ld	a,(de)
   0C02 4F                 3942 	ld	c,a
   0C03 13                 3943 	inc	de
   0C04 1A                 3944 	ld	a,(de)
   0C05 47                 3945 	ld	b,a
                           3946 ; genRet
   0C06 59                 3947 	ld	e,c
   0C07 50                 3948 	ld	d,b
   0C08 C3 06 12           3949 	jp	00170$
                           3950 ;	sound.c 427
                           3951 ; genLabel
   0C0B                    3952 00104$:
                           3953 ; genAssign
                           3954 ; AOP_HL for _soundReg
   0C0B 21 0E 00           3955 	ld	hl,#_soundReg + 0
   0C0E 4E                 3956 	ld	c,(hl)
   0C0F 23                 3957 	inc	hl
   0C10 46                 3958 	ld	b,(hl)
                           3959 ; genPlus
                           3960 ; genPlusIncr
                           3961 ;	genPlusIncr failed
   0C11 79                 3962 	ld	a,c
   0C12 C6 60              3963 	add	a,#0x60
   0C14 5F                 3964 	ld	e,a
   0C15 78                 3965 	ld	a,b
   0C16 CE 00              3966 	adc	a,#0x00
   0C18 57                 3967 	ld	d,a
                           3968 ; genPointerGet
                           3969 ; Removed redundent load
                           3970 ; Removed redundent load
   0C19 1A                 3971 	ld	a,(de)
   0C1A 4F                 3972 	ld	c,a
   0C1B 13                 3973 	inc	de
   0C1C 1A                 3974 	ld	a,(de)
   0C1D 47                 3975 	ld	b,a
                           3976 ; genRet
   0C1E 59                 3977 	ld	e,c
   0C1F 50                 3978 	ld	d,b
   0C20 C3 06 12           3979 	jp	00170$
                           3980 ;	sound.c 429
                           3981 ; genLabel
   0C23                    3982 00105$:
                           3983 ; genAssign
                           3984 ; AOP_HL for _soundReg
   0C23 21 0E 00           3985 	ld	hl,#_soundReg + 0
   0C26 4E                 3986 	ld	c,(hl)
   0C27 23                 3987 	inc	hl
   0C28 46                 3988 	ld	b,(hl)
                           3989 ; genPlus
                           3990 ; genPlusIncr
                           3991 ;	genPlusIncr failed
   0C29 79                 3992 	ld	a,c
   0C2A C6 64              3993 	add	a,#0x64
   0C2C 5F                 3994 	ld	e,a
   0C2D 78                 3995 	ld	a,b
   0C2E CE 00              3996 	adc	a,#0x00
   0C30 57                 3997 	ld	d,a
                           3998 ; genPointerGet
                           3999 ; Removed redundent load
                           4000 ; Removed redundent load
   0C31 1A                 4001 	ld	a,(de)
   0C32 4F                 4002 	ld	c,a
   0C33 13                 4003 	inc	de
   0C34 1A                 4004 	ld	a,(de)
   0C35 47                 4005 	ld	b,a
                           4006 ; genRet
   0C36 59                 4007 	ld	e,c
   0C37 50                 4008 	ld	d,b
   0C38 C3 06 12           4009 	jp	00170$
                           4010 ;	sound.c 430
                           4011 ; genLabel
   0C3B                    4012 00168$:
                           4013 ;	sound.c 431
                           4014 ; genCmpEq
                           4015 ; AOP_STK for 
   0C3B F8 06              4016 	lda	hl,6(sp)
   0C3D 7E                 4017 	ld	a,(hl) ; 2
   0C3E FE 01              4018 	cp	a,#0x01
   0C40 C2 45 0C           4019 	jp	nz,00216$
   0C43 18 03              4020 	jr	00217$
   0C45                    4021 00216$:
   0C45 C3 08 0E           4022 	jp	00165$
   0C48                    4023 00217$:
                           4024 ;	sound.c 432
                           4025 ; genCmpEq
                           4026 ; AOP_STK for 
   0C48 F8 07              4027 	lda	hl,7(sp)
   0C4A 7E                 4028 	ld	a,(hl)
   0C4B B7                 4029 	or	a,a
                           4030 ; Rule 5
   0C4C CA BA 0C           4031 	jp	z,00107$
   0C4F                    4032 00218$:
                           4033 ; genCmpEq
                           4034 ; AOP_STK for 
   0C4F F8 07              4035 	lda	hl,7(sp)
   0C51 7E                 4036 	ld	a,(hl) ; 2
   0C52 FE 01              4037 	cp	a,#0x01
                           4038 ; Rule 5
   0C54 CA D2 0C           4039 	jp	z,00108$
   0C57                    4040 00219$:
                           4041 ; genCmpEq
                           4042 ; AOP_STK for 
   0C57 F8 07              4043 	lda	hl,7(sp)
   0C59 7E                 4044 	ld	a,(hl) ; 2
   0C5A FE 02              4045 	cp	a,#0x02
                           4046 ; Rule 5
   0C5C CA E6 0C           4047 	jp	z,00109$
   0C5F                    4048 00220$:
                           4049 ; genCmpEq
                           4050 ; AOP_STK for 
   0C5F F8 07              4051 	lda	hl,7(sp)
   0C61 7E                 4052 	ld	a,(hl) ; 2
   0C62 FE 03              4053 	cp	a,#0x03
                           4054 ; Rule 5
   0C64 CA F6 0C           4055 	jp	z,00110$
   0C67                    4056 00221$:
                           4057 ; genCmpEq
                           4058 ; AOP_STK for 
   0C67 F8 07              4059 	lda	hl,7(sp)
   0C69 7E                 4060 	ld	a,(hl) ; 2
   0C6A FE 04              4061 	cp	a,#0x04
                           4062 ; Rule 5
   0C6C CA 0E 0D           4063 	jp	z,00111$
   0C6F                    4064 00222$:
                           4065 ; genCmpEq
                           4066 ; AOP_STK for 
   0C6F F8 07              4067 	lda	hl,7(sp)
   0C71 7E                 4068 	ld	a,(hl) ; 2
   0C72 FE 05              4069 	cp	a,#0x05
                           4070 ; Rule 5
   0C74 CA 26 0D           4071 	jp	z,00112$
   0C77                    4072 00223$:
                           4073 ; genCmpEq
                           4074 ; AOP_STK for 
   0C77 F8 07              4075 	lda	hl,7(sp)
   0C79 7E                 4076 	ld	a,(hl) ; 2
   0C7A FE 06              4077 	cp	a,#0x06
                           4078 ; Rule 5
   0C7C CA 3E 0D           4079 	jp	z,00113$
   0C7F                    4080 00224$:
                           4081 ; genCmpEq
                           4082 ; AOP_STK for 
   0C7F F8 07              4083 	lda	hl,7(sp)
   0C81 7E                 4084 	ld	a,(hl) ; 2
   0C82 FE 07              4085 	cp	a,#0x07
                           4086 ; Rule 5
   0C84 CA 56 0D           4087 	jp	z,00114$
   0C87                    4088 00225$:
                           4089 ; genCmpEq
                           4090 ; AOP_STK for 
   0C87 F8 07              4091 	lda	hl,7(sp)
   0C89 7E                 4092 	ld	a,(hl) ; 2
   0C8A FE 08              4093 	cp	a,#0x08
                           4094 ; Rule 5
   0C8C CA 6E 0D           4095 	jp	z,00115$
   0C8F                    4096 00226$:
                           4097 ; genCmpEq
                           4098 ; AOP_STK for 
   0C8F F8 07              4099 	lda	hl,7(sp)
   0C91 7E                 4100 	ld	a,(hl) ; 2
   0C92 FE 09              4101 	cp	a,#0x09
                           4102 ; Rule 5
   0C94 CA A8 0D           4103 	jp	z,00117$
   0C97                    4104 00227$:
                           4105 ; genCmpEq
                           4106 ; AOP_STK for 
   0C97 F8 07              4107 	lda	hl,7(sp)
   0C99 7E                 4108 	ld	a,(hl) ; 2
   0C9A FE 0A              4109 	cp	a,#0x0A
                           4110 ; Rule 5
   0C9C CA C0 0D           4111 	jp	z,00118$
   0C9F                    4112 00228$:
                           4113 ; genCmpEq
                           4114 ; AOP_STK for 
   0C9F F8 07              4115 	lda	hl,7(sp)
   0CA1 7E                 4116 	ld	a,(hl) ; 2
   0CA2 FE 0B              4117 	cp	a,#0x0B
                           4118 ; Rule 5
   0CA4 CA D8 0D           4119 	jp	z,00119$
   0CA7                    4120 00229$:
                           4121 ; genCmpEq
                           4122 ; AOP_STK for 
   0CA7 F8 07              4123 	lda	hl,7(sp)
   0CA9 7E                 4124 	ld	a,(hl) ; 2
   0CAA FE 0C              4125 	cp	a,#0x0C
                           4126 ; Rule 5
   0CAC CA F0 0D           4127 	jp	z,00120$
   0CAF                    4128 00230$:
                           4129 ; genCmpEq
                           4130 ; AOP_STK for 
   0CAF F8 07              4131 	lda	hl,7(sp)
   0CB1 7E                 4132 	ld	a,(hl) ; 2
   0CB2 FE 21              4133 	cp	a,#0x21
                           4134 ; Rule 5
   0CB4 CA 6E 0D           4135 	jp	z,00115$
   0CB7                    4136 00231$:
                           4137 ; genGoto
   0CB7 C3 03 12           4138 	jp	00169$
                           4139 ;	sound.c 435
                           4140 ; genLabel
   0CBA                    4141 00107$:
                           4142 ; genAssign
                           4143 ; AOP_HL for _soundReg
   0CBA 21 0E 00           4144 	ld	hl,#_soundReg + 0
   0CBD 4E                 4145 	ld	c,(hl)
   0CBE 23                 4146 	inc	hl
   0CBF 46                 4147 	ld	b,(hl)
                           4148 ; genPlus
                           4149 ; genPlusIncr
                           4150 ;	genPlusIncr failed
   0CC0 79                 4151 	ld	a,c
   0CC1 C6 04              4152 	add	a,#0x04
   0CC3 5F                 4153 	ld	e,a
   0CC4 78                 4154 	ld	a,b
   0CC5 CE 00              4155 	adc	a,#0x00
   0CC7 57                 4156 	ld	d,a
                           4157 ; genPointerGet
                           4158 ; Removed redundent load
                           4159 ; Removed redundent load
   0CC8 1A                 4160 	ld	a,(de)
   0CC9 4F                 4161 	ld	c,a
   0CCA 13                 4162 	inc	de
   0CCB 1A                 4163 	ld	a,(de)
   0CCC 47                 4164 	ld	b,a
                           4165 ; genRet
   0CCD 59                 4166 	ld	e,c
   0CCE 50                 4167 	ld	d,b
   0CCF C3 06 12           4168 	jp	00170$
                           4169 ;	sound.c 437
                           4170 ; genLabel
   0CD2                    4171 00108$:
                           4172 ; genAssign
                           4173 ; AOP_HL for _soundReg
   0CD2 21 0E 00           4174 	ld	hl,#_soundReg + 0
   0CD5 4E                 4175 	ld	c,(hl)
   0CD6 23                 4176 	inc	hl
   0CD7 46                 4177 	ld	b,(hl)
                           4178 ; genPlus
                           4179 ; genPlusIncr
   0CD8 59                 4180 	ld	e,c
   0CD9 50                 4181 	ld	d,b
   0CDA 13                 4182 	inc	de
   0CDB 13                 4183 	inc	de
                           4184 ; genPointerGet
                           4185 ; Removed redundent load
                           4186 ; Removed redundent load
   0CDC 1A                 4187 	ld	a,(de)
   0CDD 4F                 4188 	ld	c,a
   0CDE 13                 4189 	inc	de
   0CDF 1A                 4190 	ld	a,(de)
   0CE0 47                 4191 	ld	b,a
                           4192 ; genRet
   0CE1 59                 4193 	ld	e,c
   0CE2 50                 4194 	ld	d,b
   0CE3 C3 06 12           4195 	jp	00170$
                           4196 ;	sound.c 439
                           4197 ; genLabel
   0CE6                    4198 00109$:
                           4199 ; genAssign
                           4200 ; AOP_HL for _soundReg
   0CE6 21 0E 00           4201 	ld	hl,#_soundReg + 0
   0CE9 5E                 4202 	ld	e,(hl)
   0CEA 23                 4203 	inc	hl
   0CEB 56                 4204 	ld	d,(hl)
                           4205 ; genPointerGet
                           4206 ; Removed redundent load
                           4207 ; Removed redundent load
   0CEC 1A                 4208 	ld	a,(de)
   0CED 4F                 4209 	ld	c,a
   0CEE 13                 4210 	inc	de
   0CEF 1A                 4211 	ld	a,(de)
   0CF0 47                 4212 	ld	b,a
                           4213 ; genRet
   0CF1 59                 4214 	ld	e,c
   0CF2 50                 4215 	ld	d,b
   0CF3 C3 06 12           4216 	jp	00170$
                           4217 ;	sound.c 441
                           4218 ; genLabel
   0CF6                    4219 00110$:
                           4220 ; genAssign
                           4221 ; AOP_HL for _soundReg
   0CF6 21 0E 00           4222 	ld	hl,#_soundReg + 0
   0CF9 4E                 4223 	ld	c,(hl)
   0CFA 23                 4224 	inc	hl
   0CFB 46                 4225 	ld	b,(hl)
                           4226 ; genPlus
                           4227 ; genPlusIncr
                           4228 ;	genPlusIncr failed
   0CFC 79                 4229 	ld	a,c
   0CFD C6 0A              4230 	add	a,#0x0A
   0CFF 5F                 4231 	ld	e,a
   0D00 78                 4232 	ld	a,b
   0D01 CE 00              4233 	adc	a,#0x00
   0D03 57                 4234 	ld	d,a
                           4235 ; genPointerGet
                           4236 ; Removed redundent load
                           4237 ; Removed redundent load
   0D04 1A                 4238 	ld	a,(de)
   0D05 4F                 4239 	ld	c,a
   0D06 13                 4240 	inc	de
   0D07 1A                 4241 	ld	a,(de)
   0D08 47                 4242 	ld	b,a
                           4243 ; genRet
   0D09 59                 4244 	ld	e,c
   0D0A 50                 4245 	ld	d,b
   0D0B C3 06 12           4246 	jp	00170$
                           4247 ;	sound.c 443
                           4248 ; genLabel
   0D0E                    4249 00111$:
                           4250 ; genAssign
                           4251 ; AOP_HL for _soundReg
   0D0E 21 0E 00           4252 	ld	hl,#_soundReg + 0
   0D11 4E                 4253 	ld	c,(hl)
   0D12 23                 4254 	inc	hl
   0D13 46                 4255 	ld	b,(hl)
                           4256 ; genPlus
                           4257 ; genPlusIncr
                           4258 ;	genPlusIncr failed
   0D14 79                 4259 	ld	a,c
   0D15 C6 08              4260 	add	a,#0x08
   0D17 5F                 4261 	ld	e,a
   0D18 78                 4262 	ld	a,b
   0D19 CE 00              4263 	adc	a,#0x00
   0D1B 57                 4264 	ld	d,a
                           4265 ; genPointerGet
                           4266 ; Removed redundent load
                           4267 ; Removed redundent load
   0D1C 1A                 4268 	ld	a,(de)
   0D1D 4F                 4269 	ld	c,a
   0D1E 13                 4270 	inc	de
   0D1F 1A                 4271 	ld	a,(de)
   0D20 47                 4272 	ld	b,a
                           4273 ; genRet
   0D21 59                 4274 	ld	e,c
   0D22 50                 4275 	ld	d,b
   0D23 C3 06 12           4276 	jp	00170$
                           4277 ;	sound.c 445
                           4278 ; genLabel
   0D26                    4279 00112$:
                           4280 ; genAssign
                           4281 ; AOP_HL for _soundReg
   0D26 21 0E 00           4282 	ld	hl,#_soundReg + 0
   0D29 4E                 4283 	ld	c,(hl)
   0D2A 23                 4284 	inc	hl
   0D2B 46                 4285 	ld	b,(hl)
                           4286 ; genPlus
                           4287 ; genPlusIncr
                           4288 ;	genPlusIncr failed
   0D2C 79                 4289 	ld	a,c
   0D2D C6 10              4290 	add	a,#0x10
   0D2F 5F                 4291 	ld	e,a
   0D30 78                 4292 	ld	a,b
   0D31 CE 00              4293 	adc	a,#0x00
   0D33 57                 4294 	ld	d,a
                           4295 ; genPointerGet
                           4296 ; Removed redundent load
                           4297 ; Removed redundent load
   0D34 1A                 4298 	ld	a,(de)
   0D35 4F                 4299 	ld	c,a
   0D36 13                 4300 	inc	de
   0D37 1A                 4301 	ld	a,(de)
   0D38 47                 4302 	ld	b,a
                           4303 ; genRet
   0D39 59                 4304 	ld	e,c
   0D3A 50                 4305 	ld	d,b
   0D3B C3 06 12           4306 	jp	00170$
                           4307 ;	sound.c 447
                           4308 ; genLabel
   0D3E                    4309 00113$:
                           4310 ; genAssign
                           4311 ; AOP_HL for _soundReg
   0D3E 21 0E 00           4312 	ld	hl,#_soundReg + 0
   0D41 4E                 4313 	ld	c,(hl)
   0D42 23                 4314 	inc	hl
   0D43 46                 4315 	ld	b,(hl)
                           4316 ; genPlus
                           4317 ; genPlusIncr
                           4318 ;	genPlusIncr failed
   0D44 79                 4319 	ld	a,c
   0D45 C6 0E              4320 	add	a,#0x0E
   0D47 5F                 4321 	ld	e,a
   0D48 78                 4322 	ld	a,b
   0D49 CE 00              4323 	adc	a,#0x00
   0D4B 57                 4324 	ld	d,a
                           4325 ; genPointerGet
                           4326 ; Removed redundent load
                           4327 ; Removed redundent load
   0D4C 1A                 4328 	ld	a,(de)
   0D4D 4F                 4329 	ld	c,a
   0D4E 13                 4330 	inc	de
   0D4F 1A                 4331 	ld	a,(de)
   0D50 47                 4332 	ld	b,a
                           4333 ; genRet
   0D51 59                 4334 	ld	e,c
   0D52 50                 4335 	ld	d,b
   0D53 C3 06 12           4336 	jp	00170$
                           4337 ;	sound.c 449
                           4338 ; genLabel
   0D56                    4339 00114$:
                           4340 ; genAssign
                           4341 ; AOP_HL for _soundReg
   0D56 21 0E 00           4342 	ld	hl,#_soundReg + 0
   0D59 4E                 4343 	ld	c,(hl)
   0D5A 23                 4344 	inc	hl
   0D5B 46                 4345 	ld	b,(hl)
                           4346 ; genPlus
                           4347 ; genPlusIncr
                           4348 ;	genPlusIncr failed
   0D5C 79                 4349 	ld	a,c
   0D5D C6 0C              4350 	add	a,#0x0C
   0D5F 5F                 4351 	ld	e,a
   0D60 78                 4352 	ld	a,b
   0D61 CE 00              4353 	adc	a,#0x00
   0D63 57                 4354 	ld	d,a
                           4355 ; genPointerGet
                           4356 ; Removed redundent load
                           4357 ; Removed redundent load
   0D64 1A                 4358 	ld	a,(de)
   0D65 4F                 4359 	ld	c,a
   0D66 13                 4360 	inc	de
   0D67 1A                 4361 	ld	a,(de)
   0D68 47                 4362 	ld	b,a
                           4363 ; genRet
   0D69 59                 4364 	ld	e,c
   0D6A 50                 4365 	ld	d,b
   0D6B C3 06 12           4366 	jp	00170$
                           4367 ;	sound.c 452
                           4368 ; genLabel
   0D6E                    4369 00115$:
                           4370 ; genAssign
                           4371 ; AOP_HL for _soundReg
   0D6E 21 0E 00           4372 	ld	hl,#_soundReg + 0
   0D71 4E                 4373 	ld	c,(hl)
   0D72 23                 4374 	inc	hl
   0D73 46                 4375 	ld	b,(hl)
                           4376 ; genPlus
                           4377 ; genPlusIncr
                           4378 ;	genPlusIncr failed
   0D74 79                 4379 	ld	a,c
   0D75 C6 14              4380 	add	a,#0x14
   0D77 5F                 4381 	ld	e,a
   0D78 78                 4382 	ld	a,b
   0D79 CE 00              4383 	adc	a,#0x00
   0D7B 57                 4384 	ld	d,a
                           4385 ; genPointerGet
                           4386 ; Removed redundent load
                           4387 ; Removed redundent load
   0D7C 1A                 4388 	ld	a,(de)
   0D7D 4F                 4389 	ld	c,a
   0D7E 13                 4390 	inc	de
   0D7F 1A                 4391 	ld	a,(de)
   0D80 47                 4392 	ld	b,a
                           4393 ; genLeftShift
                           4394 ; AOP_STK for _current_value_sloc0_1_0
   0D81 F8 01              4395 	lda	hl,1(sp)
   0D83 71                 4396 	ld	(hl),c
   0D84 2B                 4397 	dec	hl
   0D85 36 00              4398 	ld	(hl),#0x00
                           4399 ; genAssign
                           4400 ; AOP_HL for _soundReg
   0D87 21 0E 00           4401 	ld	hl,#_soundReg + 0
   0D8A 4E                 4402 	ld	c,(hl)
   0D8B 23                 4403 	inc	hl
   0D8C 46                 4404 	ld	b,(hl)
                           4405 ; genPlus
                           4406 ; genPlusIncr
                           4407 ;	genPlusIncr failed
   0D8D 79                 4408 	ld	a,c
   0D8E C6 12              4409 	add	a,#0x12
   0D90 5F                 4410 	ld	e,a
   0D91 78                 4411 	ld	a,b
   0D92 CE 00              4412 	adc	a,#0x00
   0D94 57                 4413 	ld	d,a
                           4414 ; genPointerGet
                           4415 ; Removed redundent load
                           4416 ; Removed redundent load
   0D95 1A                 4417 	ld	a,(de)
   0D96 4F                 4418 	ld	c,a
   0D97 13                 4419 	inc	de
   0D98 1A                 4420 	ld	a,(de)
   0D99 47                 4421 	ld	b,a
                           4422 ; genOr
                           4423 ; AOP_STK for _current_value_sloc0_1_0
                           4424 ; Type res[2] = l[5]&r[2]
                           4425 ; Size res[2] = l[2]&r[2]
   0D9A 79                 4426 	ld	a,c
   0D9B F8 00              4427 	lda	hl,0(sp)
   0D9D B6                 4428 	or	a,(hl)
   0D9E 4F                 4429 	ld	c,a
   0D9F 78                 4430 	ld	a,b
   0DA0 23                 4431 	inc	hl
   0DA1 B6                 4432 	or	a,(hl)
   0DA2 47                 4433 	ld	b,a
                           4434 ; genRet
   0DA3 59                 4435 	ld	e,c
   0DA4 50                 4436 	ld	d,b
   0DA5 C3 06 12           4437 	jp	00170$
                           4438 ;	sound.c 454
                           4439 ; genLabel
   0DA8                    4440 00117$:
                           4441 ; genAssign
                           4442 ; AOP_HL for _soundReg
   0DA8 21 0E 00           4443 	ld	hl,#_soundReg + 0
   0DAB 4E                 4444 	ld	c,(hl)
   0DAC 23                 4445 	inc	hl
   0DAD 46                 4446 	ld	b,(hl)
                           4447 ; genPlus
                           4448 ; genPlusIncr
                           4449 ;	genPlusIncr failed
   0DAE 79                 4450 	ld	a,c
   0DAF C6 18              4451 	add	a,#0x18
   0DB1 5F                 4452 	ld	e,a
   0DB2 78                 4453 	ld	a,b
   0DB3 CE 00              4454 	adc	a,#0x00
   0DB5 57                 4455 	ld	d,a
                           4456 ; genPointerGet
                           4457 ; Removed redundent load
                           4458 ; Removed redundent load
   0DB6 1A                 4459 	ld	a,(de)
   0DB7 4F                 4460 	ld	c,a
   0DB8 13                 4461 	inc	de
   0DB9 1A                 4462 	ld	a,(de)
   0DBA 47                 4463 	ld	b,a
                           4464 ; genRet
   0DBB 59                 4465 	ld	e,c
   0DBC 50                 4466 	ld	d,b
   0DBD C3 06 12           4467 	jp	00170$
                           4468 ;	sound.c 456
                           4469 ; genLabel
   0DC0                    4470 00118$:
                           4471 ; genAssign
                           4472 ; AOP_HL for _soundReg
   0DC0 21 0E 00           4473 	ld	hl,#_soundReg + 0
   0DC3 4E                 4474 	ld	c,(hl)
   0DC4 23                 4475 	inc	hl
   0DC5 46                 4476 	ld	b,(hl)
                           4477 ; genPlus
                           4478 ; genPlusIncr
                           4479 ;	genPlusIncr failed
   0DC6 79                 4480 	ld	a,c
   0DC7 C6 68              4481 	add	a,#0x68
   0DC9 5F                 4482 	ld	e,a
   0DCA 78                 4483 	ld	a,b
   0DCB CE 00              4484 	adc	a,#0x00
   0DCD 57                 4485 	ld	d,a
                           4486 ; genPointerGet
                           4487 ; Removed redundent load
                           4488 ; Removed redundent load
   0DCE 1A                 4489 	ld	a,(de)
   0DCF 4F                 4490 	ld	c,a
   0DD0 13                 4491 	inc	de
   0DD1 1A                 4492 	ld	a,(de)
   0DD2 47                 4493 	ld	b,a
                           4494 ; genRet
   0DD3 59                 4495 	ld	e,c
   0DD4 50                 4496 	ld	d,b
   0DD5 C3 06 12           4497 	jp	00170$
                           4498 ;	sound.c 458
                           4499 ; genLabel
   0DD8                    4500 00119$:
                           4501 ; genAssign
                           4502 ; AOP_HL for _soundReg
   0DD8 21 0E 00           4503 	ld	hl,#_soundReg + 0
   0DDB 4E                 4504 	ld	c,(hl)
   0DDC 23                 4505 	inc	hl
   0DDD 46                 4506 	ld	b,(hl)
                           4507 ; genPlus
                           4508 ; genPlusIncr
                           4509 ;	genPlusIncr failed
   0DDE 79                 4510 	ld	a,c
   0DDF C6 70              4511 	add	a,#0x70
   0DE1 5F                 4512 	ld	e,a
   0DE2 78                 4513 	ld	a,b
   0DE3 CE 00              4514 	adc	a,#0x00
   0DE5 57                 4515 	ld	d,a
                           4516 ; genPointerGet
                           4517 ; Removed redundent load
                           4518 ; Removed redundent load
   0DE6 1A                 4519 	ld	a,(de)
   0DE7 4F                 4520 	ld	c,a
   0DE8 13                 4521 	inc	de
   0DE9 1A                 4522 	ld	a,(de)
   0DEA 47                 4523 	ld	b,a
                           4524 ; genRet
   0DEB 59                 4525 	ld	e,c
   0DEC 50                 4526 	ld	d,b
   0DED C3 06 12           4527 	jp	00170$
                           4528 ;	sound.c 460
                           4529 ; genLabel
   0DF0                    4530 00120$:
                           4531 ; genAssign
                           4532 ; AOP_HL for _soundReg
   0DF0 21 0E 00           4533 	ld	hl,#_soundReg + 0
   0DF3 4E                 4534 	ld	c,(hl)
   0DF4 23                 4535 	inc	hl
   0DF5 46                 4536 	ld	b,(hl)
                           4537 ; genPlus
                           4538 ; genPlusIncr
                           4539 ;	genPlusIncr failed
   0DF6 79                 4540 	ld	a,c
   0DF7 C6 78              4541 	add	a,#0x78
   0DF9 5F                 4542 	ld	e,a
   0DFA 78                 4543 	ld	a,b
   0DFB CE 00              4544 	adc	a,#0x00
   0DFD 57                 4545 	ld	d,a
                           4546 ; genPointerGet
                           4547 ; Removed redundent load
                           4548 ; Removed redundent load
   0DFE 1A                 4549 	ld	a,(de)
   0DFF 4F                 4550 	ld	c,a
   0E00 13                 4551 	inc	de
   0E01 1A                 4552 	ld	a,(de)
   0E02 47                 4553 	ld	b,a
                           4554 ; genRet
   0E03 59                 4555 	ld	e,c
   0E04 50                 4556 	ld	d,b
   0E05 C3 06 12           4557 	jp	00170$
                           4558 ;	sound.c 461
                           4559 ; genLabel
   0E08                    4560 00165$:
                           4561 ;	sound.c 462
                           4562 ; genCmpEq
                           4563 ; AOP_STK for 
   0E08 F8 06              4564 	lda	hl,6(sp)
   0E0A 7E                 4565 	ld	a,(hl) ; 2
   0E0B FE 02              4566 	cp	a,#0x02
   0E0D C2 12 0E           4567 	jp	nz,00232$
   0E10 18 03              4568 	jr	00233$
   0E12                    4569 00232$:
   0E12 C3 81 0F           4570 	jp	00162$
   0E15                    4571 00233$:
                           4572 ;	sound.c 463
                           4573 ; genCmpEq
                           4574 ; AOP_STK for 
   0E15 F8 07              4575 	lda	hl,7(sp)
   0E17 7E                 4576 	ld	a,(hl)
   0E18 B7                 4577 	or	a,a
                           4578 ; Rule 5
   0E19 CA 6F 0E           4579 	jp	z,00122$
   0E1C                    4580 00234$:
                           4581 ; genCmpEq
                           4582 ; AOP_STK for 
   0E1C F8 07              4583 	lda	hl,7(sp)
   0E1E 7E                 4584 	ld	a,(hl) ; 2
   0E1F FE 01              4585 	cp	a,#0x01
                           4586 ; Rule 5
   0E21 CA 87 0E           4587 	jp	z,00123$
   0E24                    4588 00235$:
                           4589 ; genCmpEq
                           4590 ; AOP_STK for 
   0E24 F8 07              4591 	lda	hl,7(sp)
   0E26 7E                 4592 	ld	a,(hl) ; 2
   0E27 FE 02              4593 	cp	a,#0x02
                           4594 ; Rule 5
   0E29 CA 9F 0E           4595 	jp	z,00124$
   0E2C                    4596 00236$:
                           4597 ; genCmpEq
                           4598 ; AOP_STK for 
   0E2C F8 07              4599 	lda	hl,7(sp)
   0E2E 7E                 4600 	ld	a,(hl) ; 2
   0E2F FE 03              4601 	cp	a,#0x03
                           4602 ; Rule 5
   0E31 CA B7 0E           4603 	jp	z,00125$
   0E34                    4604 00237$:
                           4605 ; genCmpEq
                           4606 ; AOP_STK for 
   0E34 F8 07              4607 	lda	hl,7(sp)
   0E36 7E                 4608 	ld	a,(hl) ; 2
   0E37 FE 04              4609 	cp	a,#0x04
                           4610 ; Rule 5
   0E39 CA CF 0E           4611 	jp	z,00126$
   0E3C                    4612 00238$:
                           4613 ; genCmpEq
                           4614 ; AOP_STK for 
   0E3C F8 07              4615 	lda	hl,7(sp)
   0E3E 7E                 4616 	ld	a,(hl) ; 2
   0E3F FE 05              4617 	cp	a,#0x05
                           4618 ; Rule 5
   0E41 CA E7 0E           4619 	jp	z,00127$
   0E44                    4620 00239$:
                           4621 ; genCmpEq
                           4622 ; AOP_STK for 
   0E44 F8 07              4623 	lda	hl,7(sp)
   0E46 7E                 4624 	ld	a,(hl) ; 2
   0E47 FE 06              4625 	cp	a,#0x06
                           4626 ; Rule 5
   0E49 CA 21 0F           4627 	jp	z,00129$
   0E4C                    4628 00240$:
                           4629 ; genCmpEq
                           4630 ; AOP_STK for 
   0E4C F8 07              4631 	lda	hl,7(sp)
   0E4E 7E                 4632 	ld	a,(hl) ; 2
   0E4F FE 07              4633 	cp	a,#0x07
                           4634 ; Rule 5
   0E51 CA 39 0F           4635 	jp	z,00130$
   0E54                    4636 00241$:
                           4637 ; genCmpEq
                           4638 ; AOP_STK for 
   0E54 F8 07              4639 	lda	hl,7(sp)
   0E56 7E                 4640 	ld	a,(hl) ; 2
   0E57 FE 08              4641 	cp	a,#0x08
                           4642 ; Rule 5
   0E59 CA 51 0F           4643 	jp	z,00131$
   0E5C                    4644 00242$:
                           4645 ; genCmpEq
                           4646 ; AOP_STK for 
   0E5C F8 07              4647 	lda	hl,7(sp)
   0E5E 7E                 4648 	ld	a,(hl) ; 2
   0E5F FE 09              4649 	cp	a,#0x09
                           4650 ; Rule 5
   0E61 CA 69 0F           4651 	jp	z,00132$
   0E64                    4652 00243$:
                           4653 ; genCmpEq
                           4654 ; AOP_STK for 
   0E64 F8 07              4655 	lda	hl,7(sp)
   0E66 7E                 4656 	ld	a,(hl) ; 2
   0E67 FE 21              4657 	cp	a,#0x21
                           4658 ; Rule 5
   0E69 CA E7 0E           4659 	jp	z,00127$
   0E6C                    4660 00244$:
                           4661 ; genGoto
   0E6C C3 03 12           4662 	jp	00169$
                           4663 ;	sound.c 466
                           4664 ; genLabel
   0E6F                    4665 00122$:
                           4666 ; genAssign
                           4667 ; AOP_HL for _soundReg
   0E6F 21 0E 00           4668 	ld	hl,#_soundReg + 0
   0E72 4E                 4669 	ld	c,(hl)
   0E73 23                 4670 	inc	hl
   0E74 46                 4671 	ld	b,(hl)
                           4672 ; genPlus
                           4673 ; genPlusIncr
                           4674 ;	genPlusIncr failed
   0E75 79                 4675 	ld	a,c
   0E76 C6 20              4676 	add	a,#0x20
   0E78 5F                 4677 	ld	e,a
   0E79 78                 4678 	ld	a,b
   0E7A CE 00              4679 	adc	a,#0x00
   0E7C 57                 4680 	ld	d,a
                           4681 ; genPointerGet
                           4682 ; Removed redundent load
                           4683 ; Removed redundent load
   0E7D 1A                 4684 	ld	a,(de)
   0E7E 4F                 4685 	ld	c,a
   0E7F 13                 4686 	inc	de
   0E80 1A                 4687 	ld	a,(de)
   0E81 47                 4688 	ld	b,a
                           4689 ; genRet
   0E82 59                 4690 	ld	e,c
   0E83 50                 4691 	ld	d,b
   0E84 C3 06 12           4692 	jp	00170$
                           4693 ;	sound.c 468
                           4694 ; genLabel
   0E87                    4695 00123$:
                           4696 ; genAssign
                           4697 ; AOP_HL for _soundReg
   0E87 21 0E 00           4698 	ld	hl,#_soundReg + 0
   0E8A 4E                 4699 	ld	c,(hl)
   0E8B 23                 4700 	inc	hl
   0E8C 46                 4701 	ld	b,(hl)
                           4702 ; genPlus
                           4703 ; genPlusIncr
                           4704 ;	genPlusIncr failed
   0E8D 79                 4705 	ld	a,c
   0E8E C6 1E              4706 	add	a,#0x1E
   0E90 5F                 4707 	ld	e,a
   0E91 78                 4708 	ld	a,b
   0E92 CE 00              4709 	adc	a,#0x00
   0E94 57                 4710 	ld	d,a
                           4711 ; genPointerGet
                           4712 ; Removed redundent load
                           4713 ; Removed redundent load
   0E95 1A                 4714 	ld	a,(de)
   0E96 4F                 4715 	ld	c,a
   0E97 13                 4716 	inc	de
   0E98 1A                 4717 	ld	a,(de)
   0E99 47                 4718 	ld	b,a
                           4719 ; genRet
   0E9A 59                 4720 	ld	e,c
   0E9B 50                 4721 	ld	d,b
   0E9C C3 06 12           4722 	jp	00170$
                           4723 ;	sound.c 470
                           4724 ; genLabel
   0E9F                    4725 00124$:
                           4726 ; genAssign
                           4727 ; AOP_HL for _soundReg
   0E9F 21 0E 00           4728 	ld	hl,#_soundReg + 0
   0EA2 4E                 4729 	ld	c,(hl)
   0EA3 23                 4730 	inc	hl
   0EA4 46                 4731 	ld	b,(hl)
                           4732 ; genPlus
                           4733 ; genPlusIncr
                           4734 ;	genPlusIncr failed
   0EA5 79                 4735 	ld	a,c
   0EA6 C6 26              4736 	add	a,#0x26
   0EA8 5F                 4737 	ld	e,a
   0EA9 78                 4738 	ld	a,b
   0EAA CE 00              4739 	adc	a,#0x00
   0EAC 57                 4740 	ld	d,a
                           4741 ; genPointerGet
                           4742 ; Removed redundent load
                           4743 ; Removed redundent load
   0EAD 1A                 4744 	ld	a,(de)
   0EAE 4F                 4745 	ld	c,a
   0EAF 13                 4746 	inc	de
   0EB0 1A                 4747 	ld	a,(de)
   0EB1 47                 4748 	ld	b,a
                           4749 ; genRet
   0EB2 59                 4750 	ld	e,c
   0EB3 50                 4751 	ld	d,b
   0EB4 C3 06 12           4752 	jp	00170$
                           4753 ;	sound.c 472
                           4754 ; genLabel
   0EB7                    4755 00125$:
                           4756 ; genAssign
                           4757 ; AOP_HL for _soundReg
   0EB7 21 0E 00           4758 	ld	hl,#_soundReg + 0
   0EBA 4E                 4759 	ld	c,(hl)
   0EBB 23                 4760 	inc	hl
   0EBC 46                 4761 	ld	b,(hl)
                           4762 ; genPlus
                           4763 ; genPlusIncr
                           4764 ;	genPlusIncr failed
   0EBD 79                 4765 	ld	a,c
   0EBE C6 24              4766 	add	a,#0x24
   0EC0 5F                 4767 	ld	e,a
   0EC1 78                 4768 	ld	a,b
   0EC2 CE 00              4769 	adc	a,#0x00
   0EC4 57                 4770 	ld	d,a
                           4771 ; genPointerGet
                           4772 ; Removed redundent load
                           4773 ; Removed redundent load
   0EC5 1A                 4774 	ld	a,(de)
   0EC6 4F                 4775 	ld	c,a
   0EC7 13                 4776 	inc	de
   0EC8 1A                 4777 	ld	a,(de)
   0EC9 47                 4778 	ld	b,a
                           4779 ; genRet
   0ECA 59                 4780 	ld	e,c
   0ECB 50                 4781 	ld	d,b
   0ECC C3 06 12           4782 	jp	00170$
                           4783 ;	sound.c 474
                           4784 ; genLabel
   0ECF                    4785 00126$:
                           4786 ; genAssign
                           4787 ; AOP_HL for _soundReg
   0ECF 21 0E 00           4788 	ld	hl,#_soundReg + 0
   0ED2 4E                 4789 	ld	c,(hl)
   0ED3 23                 4790 	inc	hl
   0ED4 46                 4791 	ld	b,(hl)
                           4792 ; genPlus
                           4793 ; genPlusIncr
                           4794 ;	genPlusIncr failed
   0ED5 79                 4795 	ld	a,c
   0ED6 C6 22              4796 	add	a,#0x22
   0ED8 5F                 4797 	ld	e,a
   0ED9 78                 4798 	ld	a,b
   0EDA CE 00              4799 	adc	a,#0x00
   0EDC 57                 4800 	ld	d,a
                           4801 ; genPointerGet
                           4802 ; Removed redundent load
                           4803 ; Removed redundent load
   0EDD 1A                 4804 	ld	a,(de)
   0EDE 4F                 4805 	ld	c,a
   0EDF 13                 4806 	inc	de
   0EE0 1A                 4807 	ld	a,(de)
   0EE1 47                 4808 	ld	b,a
                           4809 ; genRet
   0EE2 59                 4810 	ld	e,c
   0EE3 50                 4811 	ld	d,b
   0EE4 C3 06 12           4812 	jp	00170$
                           4813 ;	sound.c 477
                           4814 ; genLabel
   0EE7                    4815 00127$:
                           4816 ; genAssign
                           4817 ; AOP_HL for _soundReg
   0EE7 21 0E 00           4818 	ld	hl,#_soundReg + 0
   0EEA 4E                 4819 	ld	c,(hl)
   0EEB 23                 4820 	inc	hl
   0EEC 46                 4821 	ld	b,(hl)
                           4822 ; genPlus
                           4823 ; genPlusIncr
                           4824 ;	genPlusIncr failed
   0EED 79                 4825 	ld	a,c
   0EEE C6 2A              4826 	add	a,#0x2A
   0EF0 5F                 4827 	ld	e,a
   0EF1 78                 4828 	ld	a,b
   0EF2 CE 00              4829 	adc	a,#0x00
   0EF4 57                 4830 	ld	d,a
                           4831 ; genPointerGet
                           4832 ; Removed redundent load
                           4833 ; Removed redundent load
   0EF5 1A                 4834 	ld	a,(de)
   0EF6 4F                 4835 	ld	c,a
   0EF7 13                 4836 	inc	de
   0EF8 1A                 4837 	ld	a,(de)
   0EF9 47                 4838 	ld	b,a
                           4839 ; genLeftShift
                           4840 ; AOP_STK for _current_value_sloc0_1_0
   0EFA F8 01              4841 	lda	hl,1(sp)
   0EFC 71                 4842 	ld	(hl),c
   0EFD 2B                 4843 	dec	hl
   0EFE 36 00              4844 	ld	(hl),#0x00
                           4845 ; genAssign
                           4846 ; AOP_HL for _soundReg
   0F00 21 0E 00           4847 	ld	hl,#_soundReg + 0
   0F03 4E                 4848 	ld	c,(hl)
   0F04 23                 4849 	inc	hl
   0F05 46                 4850 	ld	b,(hl)
                           4851 ; genPlus
                           4852 ; genPlusIncr
                           4853 ;	genPlusIncr failed
   0F06 79                 4854 	ld	a,c
   0F07 C6 28              4855 	add	a,#0x28
   0F09 5F                 4856 	ld	e,a
   0F0A 78                 4857 	ld	a,b
   0F0B CE 00              4858 	adc	a,#0x00
   0F0D 57                 4859 	ld	d,a
                           4860 ; genPointerGet
                           4861 ; Removed redundent load
                           4862 ; Removed redundent load
   0F0E 1A                 4863 	ld	a,(de)
   0F0F 4F                 4864 	ld	c,a
   0F10 13                 4865 	inc	de
   0F11 1A                 4866 	ld	a,(de)
   0F12 47                 4867 	ld	b,a
                           4868 ; genOr
                           4869 ; AOP_STK for _current_value_sloc0_1_0
                           4870 ; Type res[2] = l[5]&r[2]
                           4871 ; Size res[2] = l[2]&r[2]
   0F13 79                 4872 	ld	a,c
   0F14 F8 00              4873 	lda	hl,0(sp)
   0F16 B6                 4874 	or	a,(hl)
   0F17 4F                 4875 	ld	c,a
   0F18 78                 4876 	ld	a,b
   0F19 23                 4877 	inc	hl
   0F1A B6                 4878 	or	a,(hl)
   0F1B 47                 4879 	ld	b,a
                           4880 ; genRet
   0F1C 59                 4881 	ld	e,c
   0F1D 50                 4882 	ld	d,b
   0F1E C3 06 12           4883 	jp	00170$
                           4884 ;	sound.c 479
                           4885 ; genLabel
   0F21                    4886 00129$:
                           4887 ; genAssign
                           4888 ; AOP_HL for _soundReg
   0F21 21 0E 00           4889 	ld	hl,#_soundReg + 0
   0F24 4E                 4890 	ld	c,(hl)
   0F25 23                 4891 	inc	hl
   0F26 46                 4892 	ld	b,(hl)
                           4893 ; genPlus
                           4894 ; genPlusIncr
                           4895 ;	genPlusIncr failed
   0F27 79                 4896 	ld	a,c
   0F28 C6 2E              4897 	add	a,#0x2E
   0F2A 5F                 4898 	ld	e,a
   0F2B 78                 4899 	ld	a,b
   0F2C CE 00              4900 	adc	a,#0x00
   0F2E 57                 4901 	ld	d,a
                           4902 ; genPointerGet
                           4903 ; Removed redundent load
                           4904 ; Removed redundent load
   0F2F 1A                 4905 	ld	a,(de)
   0F30 4F                 4906 	ld	c,a
   0F31 13                 4907 	inc	de
   0F32 1A                 4908 	ld	a,(de)
   0F33 47                 4909 	ld	b,a
                           4910 ; genRet
   0F34 59                 4911 	ld	e,c
   0F35 50                 4912 	ld	d,b
   0F36 C3 06 12           4913 	jp	00170$
                           4914 ;	sound.c 481
                           4915 ; genLabel
   0F39                    4916 00130$:
                           4917 ; genAssign
                           4918 ; AOP_HL for _soundReg
   0F39 21 0E 00           4919 	ld	hl,#_soundReg + 0
   0F3C 4E                 4920 	ld	c,(hl)
   0F3D 23                 4921 	inc	hl
   0F3E 46                 4922 	ld	b,(hl)
                           4923 ; genPlus
                           4924 ; genPlusIncr
                           4925 ;	genPlusIncr failed
   0F3F 79                 4926 	ld	a,c
   0F40 C6 6A              4927 	add	a,#0x6A
   0F42 5F                 4928 	ld	e,a
   0F43 78                 4929 	ld	a,b
   0F44 CE 00              4930 	adc	a,#0x00
   0F46 57                 4931 	ld	d,a
                           4932 ; genPointerGet
                           4933 ; Removed redundent load
                           4934 ; Removed redundent load
   0F47 1A                 4935 	ld	a,(de)
   0F48 4F                 4936 	ld	c,a
   0F49 13                 4937 	inc	de
   0F4A 1A                 4938 	ld	a,(de)
   0F4B 47                 4939 	ld	b,a
                           4940 ; genRet
   0F4C 59                 4941 	ld	e,c
   0F4D 50                 4942 	ld	d,b
   0F4E C3 06 12           4943 	jp	00170$
                           4944 ;	sound.c 483
                           4945 ; genLabel
   0F51                    4946 00131$:
                           4947 ; genAssign
                           4948 ; AOP_HL for _soundReg
   0F51 21 0E 00           4949 	ld	hl,#_soundReg + 0
   0F54 4E                 4950 	ld	c,(hl)
   0F55 23                 4951 	inc	hl
   0F56 46                 4952 	ld	b,(hl)
                           4953 ; genPlus
                           4954 ; genPlusIncr
                           4955 ;	genPlusIncr failed
   0F57 79                 4956 	ld	a,c
   0F58 C6 72              4957 	add	a,#0x72
   0F5A 5F                 4958 	ld	e,a
   0F5B 78                 4959 	ld	a,b
   0F5C CE 00              4960 	adc	a,#0x00
   0F5E 57                 4961 	ld	d,a
                           4962 ; genPointerGet
                           4963 ; Removed redundent load
                           4964 ; Removed redundent load
   0F5F 1A                 4965 	ld	a,(de)
   0F60 4F                 4966 	ld	c,a
   0F61 13                 4967 	inc	de
   0F62 1A                 4968 	ld	a,(de)
   0F63 47                 4969 	ld	b,a
                           4970 ; genRet
   0F64 59                 4971 	ld	e,c
   0F65 50                 4972 	ld	d,b
   0F66 C3 06 12           4973 	jp	00170$
                           4974 ;	sound.c 485
                           4975 ; genLabel
   0F69                    4976 00132$:
                           4977 ; genAssign
                           4978 ; AOP_HL for _soundReg
   0F69 21 0E 00           4979 	ld	hl,#_soundReg + 0
   0F6C 4E                 4980 	ld	c,(hl)
   0F6D 23                 4981 	inc	hl
   0F6E 46                 4982 	ld	b,(hl)
                           4983 ; genPlus
                           4984 ; genPlusIncr
                           4985 ;	genPlusIncr failed
   0F6F 79                 4986 	ld	a,c
   0F70 C6 7A              4987 	add	a,#0x7A
   0F72 5F                 4988 	ld	e,a
   0F73 78                 4989 	ld	a,b
   0F74 CE 00              4990 	adc	a,#0x00
   0F76 57                 4991 	ld	d,a
                           4992 ; genPointerGet
                           4993 ; Removed redundent load
                           4994 ; Removed redundent load
   0F77 1A                 4995 	ld	a,(de)
   0F78 4F                 4996 	ld	c,a
   0F79 13                 4997 	inc	de
   0F7A 1A                 4998 	ld	a,(de)
   0F7B 47                 4999 	ld	b,a
                           5000 ; genRet
   0F7C 59                 5001 	ld	e,c
   0F7D 50                 5002 	ld	d,b
   0F7E C3 06 12           5003 	jp	00170$
                           5004 ;	sound.c 486
                           5005 ; genLabel
   0F81                    5006 00162$:
                           5007 ;	sound.c 487
                           5008 ; genCmpEq
                           5009 ; AOP_STK for 
   0F81 F8 06              5010 	lda	hl,6(sp)
   0F83 7E                 5011 	ld	a,(hl) ; 2
   0F84 FE 03              5012 	cp	a,#0x03
   0F86 C2 8B 0F           5013 	jp	nz,00245$
   0F89 18 03              5014 	jr	00246$
   0F8B                    5015 00245$:
   0F8B C3 BA 10           5016 	jp	00159$
   0F8E                    5017 00246$:
                           5018 ;	sound.c 488
                           5019 ; genCmpEq
                           5020 ; AOP_STK for 
   0F8E F8 07              5021 	lda	hl,7(sp)
   0F90 7E                 5022 	ld	a,(hl)
   0F91 B7                 5023 	or	a,a
                           5024 ; Rule 5
   0F92 CA D8 0F           5025 	jp	z,00134$
   0F95                    5026 00247$:
                           5027 ; genCmpEq
                           5028 ; AOP_STK for 
   0F95 F8 07              5029 	lda	hl,7(sp)
   0F97 7E                 5030 	ld	a,(hl) ; 2
   0F98 FE 01              5031 	cp	a,#0x01
                           5032 ; Rule 5
   0F9A CA F0 0F           5033 	jp	z,00135$
   0F9D                    5034 00248$:
                           5035 ; genCmpEq
                           5036 ; AOP_STK for 
   0F9D F8 07              5037 	lda	hl,7(sp)
   0F9F 7E                 5038 	ld	a,(hl) ; 2
   0FA0 FE 02              5039 	cp	a,#0x02
                           5040 ; Rule 5
   0FA2 CA 08 10           5041 	jp	z,00136$
   0FA5                    5042 00249$:
                           5043 ; genCmpEq
                           5044 ; AOP_STK for 
   0FA5 F8 07              5045 	lda	hl,7(sp)
   0FA7 7E                 5046 	ld	a,(hl) ; 2
   0FA8 FE 03              5047 	cp	a,#0x03
                           5048 ; Rule 5
   0FAA CA 20 10           5049 	jp	z,00137$
   0FAD                    5050 00250$:
                           5051 ; genCmpEq
                           5052 ; AOP_STK for 
   0FAD F8 07              5053 	lda	hl,7(sp)
   0FAF 7E                 5054 	ld	a,(hl) ; 2
   0FB0 FE 04              5055 	cp	a,#0x04
                           5056 ; Rule 5
   0FB2 CA 5A 10           5057 	jp	z,00139$
   0FB5                    5058 00251$:
                           5059 ; genCmpEq
                           5060 ; AOP_STK for 
   0FB5 F8 07              5061 	lda	hl,7(sp)
   0FB7 7E                 5062 	ld	a,(hl) ; 2
   0FB8 FE 05              5063 	cp	a,#0x05
                           5064 ; Rule 5
   0FBA CA 72 10           5065 	jp	z,00140$
   0FBD                    5066 00252$:
                           5067 ; genCmpEq
                           5068 ; AOP_STK for 
   0FBD F8 07              5069 	lda	hl,7(sp)
   0FBF 7E                 5070 	ld	a,(hl) ; 2
   0FC0 FE 06              5071 	cp	a,#0x06
                           5072 ; Rule 5
   0FC2 CA 8A 10           5073 	jp	z,00141$
   0FC5                    5074 00253$:
                           5075 ; genCmpEq
                           5076 ; AOP_STK for 
   0FC5 F8 07              5077 	lda	hl,7(sp)
   0FC7 7E                 5078 	ld	a,(hl) ; 2
   0FC8 FE 07              5079 	cp	a,#0x07
                           5080 ; Rule 5
   0FCA CA A2 10           5081 	jp	z,00142$
   0FCD                    5082 00254$:
                           5083 ; genCmpEq
                           5084 ; AOP_STK for 
   0FCD F8 07              5085 	lda	hl,7(sp)
   0FCF 7E                 5086 	ld	a,(hl) ; 2
   0FD0 FE 21              5087 	cp	a,#0x21
                           5088 ; Rule 5
   0FD2 CA 20 10           5089 	jp	z,00137$
   0FD5                    5090 00255$:
                           5091 ; genGoto
   0FD5 C3 03 12           5092 	jp	00169$
                           5093 ;	sound.c 491
                           5094 ; genLabel
   0FD8                    5095 00134$:
                           5096 ; genAssign
                           5097 ; AOP_HL for _soundReg
   0FD8 21 0E 00           5098 	ld	hl,#_soundReg + 0
   0FDB 4E                 5099 	ld	c,(hl)
   0FDC 23                 5100 	inc	hl
   0FDD 46                 5101 	ld	b,(hl)
                           5102 ; genPlus
                           5103 ; genPlusIncr
                           5104 ;	genPlusIncr failed
   0FDE 79                 5105 	ld	a,c
   0FDF C6 34              5106 	add	a,#0x34
   0FE1 5F                 5107 	ld	e,a
   0FE2 78                 5108 	ld	a,b
   0FE3 CE 00              5109 	adc	a,#0x00
   0FE5 57                 5110 	ld	d,a
                           5111 ; genPointerGet
                           5112 ; Removed redundent load
                           5113 ; Removed redundent load
   0FE6 1A                 5114 	ld	a,(de)
   0FE7 4F                 5115 	ld	c,a
   0FE8 13                 5116 	inc	de
   0FE9 1A                 5117 	ld	a,(de)
   0FEA 47                 5118 	ld	b,a
                           5119 ; genRet
   0FEB 59                 5120 	ld	e,c
   0FEC 50                 5121 	ld	d,b
   0FED C3 06 12           5122 	jp	00170$
                           5123 ;	sound.c 493
                           5124 ; genLabel
   0FF0                    5125 00135$:
                           5126 ; genAssign
                           5127 ; AOP_HL for _soundReg
   0FF0 21 0E 00           5128 	ld	hl,#_soundReg + 0
   0FF3 4E                 5129 	ld	c,(hl)
   0FF4 23                 5130 	inc	hl
   0FF5 46                 5131 	ld	b,(hl)
                           5132 ; genPlus
                           5133 ; genPlusIncr
                           5134 ;	genPlusIncr failed
   0FF6 79                 5135 	ld	a,c
   0FF7 C6 36              5136 	add	a,#0x36
   0FF9 5F                 5137 	ld	e,a
   0FFA 78                 5138 	ld	a,b
   0FFB CE 00              5139 	adc	a,#0x00
   0FFD 57                 5140 	ld	d,a
                           5141 ; genPointerGet
                           5142 ; Removed redundent load
                           5143 ; Removed redundent load
   0FFE 1A                 5144 	ld	a,(de)
   0FFF 4F                 5145 	ld	c,a
   1000 13                 5146 	inc	de
   1001 1A                 5147 	ld	a,(de)
   1002 47                 5148 	ld	b,a
                           5149 ; genRet
   1003 59                 5150 	ld	e,c
   1004 50                 5151 	ld	d,b
   1005 C3 06 12           5152 	jp	00170$
                           5153 ;	sound.c 495
                           5154 ; genLabel
   1008                    5155 00136$:
                           5156 ; genAssign
                           5157 ; AOP_HL for _soundReg
   1008 21 0E 00           5158 	ld	hl,#_soundReg + 0
   100B 4E                 5159 	ld	c,(hl)
   100C 23                 5160 	inc	hl
   100D 46                 5161 	ld	b,(hl)
                           5162 ; genPlus
                           5163 ; genPlusIncr
                           5164 ;	genPlusIncr failed
   100E 79                 5165 	ld	a,c
   100F C6 3A              5166 	add	a,#0x3A
   1011 5F                 5167 	ld	e,a
   1012 78                 5168 	ld	a,b
   1013 CE 00              5169 	adc	a,#0x00
   1015 57                 5170 	ld	d,a
                           5171 ; genPointerGet
                           5172 ; Removed redundent load
                           5173 ; Removed redundent load
   1016 1A                 5174 	ld	a,(de)
   1017 4F                 5175 	ld	c,a
   1018 13                 5176 	inc	de
   1019 1A                 5177 	ld	a,(de)
   101A 47                 5178 	ld	b,a
                           5179 ; genRet
   101B 59                 5180 	ld	e,c
   101C 50                 5181 	ld	d,b
   101D C3 06 12           5182 	jp	00170$
                           5183 ;	sound.c 498
                           5184 ; genLabel
   1020                    5185 00137$:
                           5186 ; genAssign
                           5187 ; AOP_HL for _soundReg
   1020 21 0E 00           5188 	ld	hl,#_soundReg + 0
   1023 4E                 5189 	ld	c,(hl)
   1024 23                 5190 	inc	hl
   1025 46                 5191 	ld	b,(hl)
                           5192 ; genPlus
                           5193 ; genPlusIncr
                           5194 ;	genPlusIncr failed
   1026 79                 5195 	ld	a,c
   1027 C6 40              5196 	add	a,#0x40
   1029 5F                 5197 	ld	e,a
   102A 78                 5198 	ld	a,b
   102B CE 00              5199 	adc	a,#0x00
   102D 57                 5200 	ld	d,a
                           5201 ; genPointerGet
                           5202 ; Removed redundent load
                           5203 ; Removed redundent load
   102E 1A                 5204 	ld	a,(de)
   102F 4F                 5205 	ld	c,a
   1030 13                 5206 	inc	de
   1031 1A                 5207 	ld	a,(de)
   1032 47                 5208 	ld	b,a
                           5209 ; genLeftShift
                           5210 ; AOP_STK for _current_value_sloc0_1_0
   1033 F8 01              5211 	lda	hl,1(sp)
   1035 71                 5212 	ld	(hl),c
   1036 2B                 5213 	dec	hl
   1037 36 00              5214 	ld	(hl),#0x00
                           5215 ; genAssign
                           5216 ; AOP_HL for _soundReg
   1039 21 0E 00           5217 	ld	hl,#_soundReg + 0
   103C 4E                 5218 	ld	c,(hl)
   103D 23                 5219 	inc	hl
   103E 46                 5220 	ld	b,(hl)
                           5221 ; genPlus
                           5222 ; genPlusIncr
                           5223 ;	genPlusIncr failed
   103F 79                 5224 	ld	a,c
   1040 C6 3E              5225 	add	a,#0x3E
   1042 5F                 5226 	ld	e,a
   1043 78                 5227 	ld	a,b
   1044 CE 00              5228 	adc	a,#0x00
   1046 57                 5229 	ld	d,a
                           5230 ; genPointerGet
                           5231 ; Removed redundent load
                           5232 ; Removed redundent load
   1047 1A                 5233 	ld	a,(de)
   1048 4F                 5234 	ld	c,a
   1049 13                 5235 	inc	de
   104A 1A                 5236 	ld	a,(de)
   104B 47                 5237 	ld	b,a
                           5238 ; genOr
                           5239 ; AOP_STK for _current_value_sloc0_1_0
                           5240 ; Type res[2] = l[5]&r[2]
                           5241 ; Size res[2] = l[2]&r[2]
   104C 79                 5242 	ld	a,c
   104D F8 00              5243 	lda	hl,0(sp)
   104F B6                 5244 	or	a,(hl)
   1050 4F                 5245 	ld	c,a
   1051 78                 5246 	ld	a,b
   1052 23                 5247 	inc	hl
   1053 B6                 5248 	or	a,(hl)
   1054 47                 5249 	ld	b,a
                           5250 ; genRet
   1055 59                 5251 	ld	e,c
   1056 50                 5252 	ld	d,b
   1057 C3 06 12           5253 	jp	00170$
                           5254 ;	sound.c 500
                           5255 ; genLabel
   105A                    5256 00139$:
                           5257 ; genAssign
                           5258 ; AOP_HL for _soundReg
   105A 21 0E 00           5259 	ld	hl,#_soundReg + 0
   105D 4E                 5260 	ld	c,(hl)
   105E 23                 5261 	inc	hl
   105F 46                 5262 	ld	b,(hl)
                           5263 ; genPlus
                           5264 ; genPlusIncr
                           5265 ;	genPlusIncr failed
   1060 79                 5266 	ld	a,c
   1061 C6 44              5267 	add	a,#0x44
   1063 5F                 5268 	ld	e,a
   1064 78                 5269 	ld	a,b
   1065 CE 00              5270 	adc	a,#0x00
   1067 57                 5271 	ld	d,a
                           5272 ; genPointerGet
                           5273 ; Removed redundent load
                           5274 ; Removed redundent load
   1068 1A                 5275 	ld	a,(de)
   1069 4F                 5276 	ld	c,a
   106A 13                 5277 	inc	de
   106B 1A                 5278 	ld	a,(de)
   106C 47                 5279 	ld	b,a
                           5280 ; genRet
   106D 59                 5281 	ld	e,c
   106E 50                 5282 	ld	d,b
   106F C3 06 12           5283 	jp	00170$
                           5284 ;	sound.c 502
                           5285 ; genLabel
   1072                    5286 00140$:
                           5287 ; genAssign
                           5288 ; AOP_HL for _soundReg
   1072 21 0E 00           5289 	ld	hl,#_soundReg + 0
   1075 4E                 5290 	ld	c,(hl)
   1076 23                 5291 	inc	hl
   1077 46                 5292 	ld	b,(hl)
                           5293 ; genPlus
                           5294 ; genPlusIncr
                           5295 ;	genPlusIncr failed
   1078 79                 5296 	ld	a,c
   1079 C6 6C              5297 	add	a,#0x6C
   107B 5F                 5298 	ld	e,a
   107C 78                 5299 	ld	a,b
   107D CE 00              5300 	adc	a,#0x00
   107F 57                 5301 	ld	d,a
                           5302 ; genPointerGet
                           5303 ; Removed redundent load
                           5304 ; Removed redundent load
   1080 1A                 5305 	ld	a,(de)
   1081 4F                 5306 	ld	c,a
   1082 13                 5307 	inc	de
   1083 1A                 5308 	ld	a,(de)
   1084 47                 5309 	ld	b,a
                           5310 ; genRet
   1085 59                 5311 	ld	e,c
   1086 50                 5312 	ld	d,b
   1087 C3 06 12           5313 	jp	00170$
                           5314 ;	sound.c 504
                           5315 ; genLabel
   108A                    5316 00141$:
                           5317 ; genAssign
                           5318 ; AOP_HL for _soundReg
   108A 21 0E 00           5319 	ld	hl,#_soundReg + 0
   108D 4E                 5320 	ld	c,(hl)
   108E 23                 5321 	inc	hl
   108F 46                 5322 	ld	b,(hl)
                           5323 ; genPlus
                           5324 ; genPlusIncr
                           5325 ;	genPlusIncr failed
   1090 79                 5326 	ld	a,c
   1091 C6 74              5327 	add	a,#0x74
   1093 5F                 5328 	ld	e,a
   1094 78                 5329 	ld	a,b
   1095 CE 00              5330 	adc	a,#0x00
   1097 57                 5331 	ld	d,a
                           5332 ; genPointerGet
                           5333 ; Removed redundent load
                           5334 ; Removed redundent load
   1098 1A                 5335 	ld	a,(de)
   1099 4F                 5336 	ld	c,a
   109A 13                 5337 	inc	de
   109B 1A                 5338 	ld	a,(de)
   109C 47                 5339 	ld	b,a
                           5340 ; genRet
   109D 59                 5341 	ld	e,c
   109E 50                 5342 	ld	d,b
   109F C3 06 12           5343 	jp	00170$
                           5344 ;	sound.c 506
                           5345 ; genLabel
   10A2                    5346 00142$:
                           5347 ; genAssign
                           5348 ; AOP_HL for _soundReg
   10A2 21 0E 00           5349 	ld	hl,#_soundReg + 0
   10A5 4E                 5350 	ld	c,(hl)
   10A6 23                 5351 	inc	hl
   10A7 46                 5352 	ld	b,(hl)
                           5353 ; genPlus
                           5354 ; genPlusIncr
                           5355 ;	genPlusIncr failed
   10A8 79                 5356 	ld	a,c
   10A9 C6 7C              5357 	add	a,#0x7C
   10AB 5F                 5358 	ld	e,a
   10AC 78                 5359 	ld	a,b
   10AD CE 00              5360 	adc	a,#0x00
   10AF 57                 5361 	ld	d,a
                           5362 ; genPointerGet
                           5363 ; Removed redundent load
                           5364 ; Removed redundent load
   10B0 1A                 5365 	ld	a,(de)
   10B1 4F                 5366 	ld	c,a
   10B2 13                 5367 	inc	de
   10B3 1A                 5368 	ld	a,(de)
   10B4 47                 5369 	ld	b,a
                           5370 ; genRet
   10B5 59                 5371 	ld	e,c
   10B6 50                 5372 	ld	d,b
   10B7 C3 06 12           5373 	jp	00170$
                           5374 ;	sound.c 507
                           5375 ; genLabel
   10BA                    5376 00159$:
                           5377 ;	sound.c 508
                           5378 ; genCmpEq
                           5379 ; AOP_STK for 
   10BA F8 06              5380 	lda	hl,6(sp)
   10BC 7E                 5381 	ld	a,(hl) ; 2
   10BD FE 04              5382 	cp	a,#0x04
   10BF C2 C4 10           5383 	jp	nz,00256$
   10C2 18 03              5384 	jr	00257$
   10C4                    5385 00256$:
   10C4 C3 03 12           5386 	jp	00169$
   10C7                    5387 00257$:
                           5388 ;	sound.c 509
                           5389 ; genCmpGt
                           5390 ; AOP_STK for 
   10C7 AF                 5391 	xor	a,a
   10C8 3E 0A              5392 	ld	a,#0x0A
   10CA F8 07              5393 	lda	hl,7(sp)
   10CC 9E                 5394 	sbc	a,(hl) ; 2
   10CD DA 03 12           5395 	jp	c,00169$
                           5396 ; genJumpTab
                           5397 ; AOP_STK for 
   10D0 5E                 5398 	ld	e,(hl)
   10D1 16 00              5399 	ld	d,#0x00
   10D3 21 DA 10           5400 	ld	hl,#00258$
   10D6 19                 5401 	add	hl,de
   10D7 19                 5402 	add	hl,de
   10D8 19                 5403 	add	hl,de
   10D9 E9                 5404 	jp	(hl)
   10DA                    5405 00258$:
   10DA C3 FB 10           5406 	jp	00144$
   10DD C3 13 11           5407 	jp	00145$
   10E0 C3 2B 11           5408 	jp	00146$
   10E3 C3 43 11           5409 	jp	00147$
   10E6 C3 5B 11           5410 	jp	00148$
   10E9 C3 73 11           5411 	jp	00149$
   10EC C3 8B 11           5412 	jp	00150$
   10EF C3 A3 11           5413 	jp	00151$
   10F2 C3 BB 11           5414 	jp	00152$
   10F5 C3 D3 11           5415 	jp	00153$
   10F8 C3 EB 11           5416 	jp	00154$
                           5417 ;	sound.c 512
                           5418 ; genLabel
   10FB                    5419 00144$:
                           5420 ; genAssign
                           5421 ; AOP_HL for _soundReg
   10FB 21 0E 00           5422 	ld	hl,#_soundReg + 0
   10FE 4E                 5423 	ld	c,(hl)
   10FF 23                 5424 	inc	hl
   1100 46                 5425 	ld	b,(hl)
                           5426 ; genPlus
                           5427 ; genPlusIncr
                           5428 ;	genPlusIncr failed
   1101 79                 5429 	ld	a,c
   1102 C6 4A              5430 	add	a,#0x4A
   1104 5F                 5431 	ld	e,a
   1105 78                 5432 	ld	a,b
   1106 CE 00              5433 	adc	a,#0x00
   1108 57                 5434 	ld	d,a
                           5435 ; genPointerGet
                           5436 ; Removed redundent load
                           5437 ; Removed redundent load
   1109 1A                 5438 	ld	a,(de)
   110A 4F                 5439 	ld	c,a
   110B 13                 5440 	inc	de
   110C 1A                 5441 	ld	a,(de)
   110D 47                 5442 	ld	b,a
                           5443 ; genRet
   110E 59                 5444 	ld	e,c
   110F 50                 5445 	ld	d,b
   1110 C3 06 12           5446 	jp	00170$
                           5447 ;	sound.c 514
                           5448 ; genLabel
   1113                    5449 00145$:
                           5450 ; genAssign
                           5451 ; AOP_HL for _soundReg
   1113 21 0E 00           5452 	ld	hl,#_soundReg + 0
   1116 4E                 5453 	ld	c,(hl)
   1117 23                 5454 	inc	hl
   1118 46                 5455 	ld	b,(hl)
                           5456 ; genPlus
                           5457 ; genPlusIncr
                           5458 ;	genPlusIncr failed
   1119 79                 5459 	ld	a,c
   111A C6 52              5460 	add	a,#0x52
   111C 5F                 5461 	ld	e,a
   111D 78                 5462 	ld	a,b
   111E CE 00              5463 	adc	a,#0x00
   1120 57                 5464 	ld	d,a
                           5465 ; genPointerGet
                           5466 ; Removed redundent load
                           5467 ; Removed redundent load
   1121 1A                 5468 	ld	a,(de)
   1122 4F                 5469 	ld	c,a
   1123 13                 5470 	inc	de
   1124 1A                 5471 	ld	a,(de)
   1125 47                 5472 	ld	b,a
                           5473 ; genRet
   1126 59                 5474 	ld	e,c
   1127 50                 5475 	ld	d,b
   1128 C3 06 12           5476 	jp	00170$
                           5477 ;	sound.c 516
                           5478 ; genLabel
   112B                    5479 00146$:
                           5480 ; genAssign
                           5481 ; AOP_HL for _soundReg
   112B 21 0E 00           5482 	ld	hl,#_soundReg + 0
   112E 4E                 5483 	ld	c,(hl)
   112F 23                 5484 	inc	hl
   1130 46                 5485 	ld	b,(hl)
                           5486 ; genPlus
                           5487 ; genPlusIncr
                           5488 ;	genPlusIncr failed
   1131 79                 5489 	ld	a,c
   1132 C6 50              5490 	add	a,#0x50
   1134 5F                 5491 	ld	e,a
   1135 78                 5492 	ld	a,b
   1136 CE 00              5493 	adc	a,#0x00
   1138 57                 5494 	ld	d,a
                           5495 ; genPointerGet
                           5496 ; Removed redundent load
                           5497 ; Removed redundent load
   1139 1A                 5498 	ld	a,(de)
   113A 4F                 5499 	ld	c,a
   113B 13                 5500 	inc	de
   113C 1A                 5501 	ld	a,(de)
   113D 47                 5502 	ld	b,a
                           5503 ; genRet
   113E 59                 5504 	ld	e,c
   113F 50                 5505 	ld	d,b
   1140 C3 06 12           5506 	jp	00170$
                           5507 ;	sound.c 518
                           5508 ; genLabel
   1143                    5509 00147$:
                           5510 ; genAssign
                           5511 ; AOP_HL for _soundReg
   1143 21 0E 00           5512 	ld	hl,#_soundReg + 0
   1146 4E                 5513 	ld	c,(hl)
   1147 23                 5514 	inc	hl
   1148 46                 5515 	ld	b,(hl)
                           5516 ; genPlus
                           5517 ; genPlusIncr
                           5518 ;	genPlusIncr failed
   1149 79                 5519 	ld	a,c
   114A C6 4E              5520 	add	a,#0x4E
   114C 5F                 5521 	ld	e,a
   114D 78                 5522 	ld	a,b
   114E CE 00              5523 	adc	a,#0x00
   1150 57                 5524 	ld	d,a
                           5525 ; genPointerGet
                           5526 ; Removed redundent load
                           5527 ; Removed redundent load
   1151 1A                 5528 	ld	a,(de)
   1152 4F                 5529 	ld	c,a
   1153 13                 5530 	inc	de
   1154 1A                 5531 	ld	a,(de)
   1155 47                 5532 	ld	b,a
                           5533 ; genRet
   1156 59                 5534 	ld	e,c
   1157 50                 5535 	ld	d,b
   1158 C3 06 12           5536 	jp	00170$
                           5537 ;	sound.c 520
                           5538 ; genLabel
   115B                    5539 00148$:
                           5540 ; genAssign
                           5541 ; AOP_HL for _soundReg
   115B 21 0E 00           5542 	ld	hl,#_soundReg + 0
   115E 4E                 5543 	ld	c,(hl)
   115F 23                 5544 	inc	hl
   1160 46                 5545 	ld	b,(hl)
                           5546 ; genPlus
                           5547 ; genPlusIncr
                           5548 ;	genPlusIncr failed
   1161 79                 5549 	ld	a,c
   1162 C6 58              5550 	add	a,#0x58
   1164 5F                 5551 	ld	e,a
   1165 78                 5552 	ld	a,b
   1166 CE 00              5553 	adc	a,#0x00
   1168 57                 5554 	ld	d,a
                           5555 ; genPointerGet
                           5556 ; Removed redundent load
                           5557 ; Removed redundent load
   1169 1A                 5558 	ld	a,(de)
   116A 4F                 5559 	ld	c,a
   116B 13                 5560 	inc	de
   116C 1A                 5561 	ld	a,(de)
   116D 47                 5562 	ld	b,a
                           5563 ; genRet
   116E 59                 5564 	ld	e,c
   116F 50                 5565 	ld	d,b
   1170 C3 06 12           5566 	jp	00170$
                           5567 ;	sound.c 522
                           5568 ; genLabel
   1173                    5569 00149$:
                           5570 ; genAssign
                           5571 ; AOP_HL for _soundReg
   1173 21 0E 00           5572 	ld	hl,#_soundReg + 0
   1176 4E                 5573 	ld	c,(hl)
   1177 23                 5574 	inc	hl
   1178 46                 5575 	ld	b,(hl)
                           5576 ; genPlus
                           5577 ; genPlusIncr
                           5578 ;	genPlusIncr failed
   1179 79                 5579 	ld	a,c
   117A C6 56              5580 	add	a,#0x56
   117C 5F                 5581 	ld	e,a
   117D 78                 5582 	ld	a,b
   117E CE 00              5583 	adc	a,#0x00
   1180 57                 5584 	ld	d,a
                           5585 ; genPointerGet
                           5586 ; Removed redundent load
                           5587 ; Removed redundent load
   1181 1A                 5588 	ld	a,(de)
   1182 4F                 5589 	ld	c,a
   1183 13                 5590 	inc	de
   1184 1A                 5591 	ld	a,(de)
   1185 47                 5592 	ld	b,a
                           5593 ; genRet
   1186 59                 5594 	ld	e,c
   1187 50                 5595 	ld	d,b
   1188 C3 06 12           5596 	jp	00170$
                           5597 ;	sound.c 524
                           5598 ; genLabel
   118B                    5599 00150$:
                           5600 ; genAssign
                           5601 ; AOP_HL for _soundReg
   118B 21 0E 00           5602 	ld	hl,#_soundReg + 0
   118E 4E                 5603 	ld	c,(hl)
   118F 23                 5604 	inc	hl
   1190 46                 5605 	ld	b,(hl)
                           5606 ; genPlus
                           5607 ; genPlusIncr
                           5608 ;	genPlusIncr failed
   1191 79                 5609 	ld	a,c
   1192 C6 54              5610 	add	a,#0x54
   1194 5F                 5611 	ld	e,a
   1195 78                 5612 	ld	a,b
   1196 CE 00              5613 	adc	a,#0x00
   1198 57                 5614 	ld	d,a
                           5615 ; genPointerGet
                           5616 ; Removed redundent load
                           5617 ; Removed redundent load
   1199 1A                 5618 	ld	a,(de)
   119A 4F                 5619 	ld	c,a
   119B 13                 5620 	inc	de
   119C 1A                 5621 	ld	a,(de)
   119D 47                 5622 	ld	b,a
                           5623 ; genRet
   119E 59                 5624 	ld	e,c
   119F 50                 5625 	ld	d,b
   11A0 C3 06 12           5626 	jp	00170$
                           5627 ;	sound.c 526
                           5628 ; genLabel
   11A3                    5629 00151$:
                           5630 ; genAssign
                           5631 ; AOP_HL for _soundReg
   11A3 21 0E 00           5632 	ld	hl,#_soundReg + 0
   11A6 4E                 5633 	ld	c,(hl)
   11A7 23                 5634 	inc	hl
   11A8 46                 5635 	ld	b,(hl)
                           5636 ; genPlus
                           5637 ; genPlusIncr
                           5638 ;	genPlusIncr failed
   11A9 79                 5639 	ld	a,c
   11AA C6 5C              5640 	add	a,#0x5C
   11AC 5F                 5641 	ld	e,a
   11AD 78                 5642 	ld	a,b
   11AE CE 00              5643 	adc	a,#0x00
   11B0 57                 5644 	ld	d,a
                           5645 ; genPointerGet
                           5646 ; Removed redundent load
                           5647 ; Removed redundent load
   11B1 1A                 5648 	ld	a,(de)
   11B2 4F                 5649 	ld	c,a
   11B3 13                 5650 	inc	de
   11B4 1A                 5651 	ld	a,(de)
   11B5 47                 5652 	ld	b,a
                           5653 ; genRet
   11B6 59                 5654 	ld	e,c
   11B7 50                 5655 	ld	d,b
   11B8 C3 06 12           5656 	jp	00170$
                           5657 ;	sound.c 528
                           5658 ; genLabel
   11BB                    5659 00152$:
                           5660 ; genAssign
                           5661 ; AOP_HL for _soundReg
   11BB 21 0E 00           5662 	ld	hl,#_soundReg + 0
   11BE 4E                 5663 	ld	c,(hl)
   11BF 23                 5664 	inc	hl
   11C0 46                 5665 	ld	b,(hl)
                           5666 ; genPlus
                           5667 ; genPlusIncr
                           5668 ;	genPlusIncr failed
   11C1 79                 5669 	ld	a,c
   11C2 C6 6E              5670 	add	a,#0x6E
   11C4 5F                 5671 	ld	e,a
   11C5 78                 5672 	ld	a,b
   11C6 CE 00              5673 	adc	a,#0x00
   11C8 57                 5674 	ld	d,a
                           5675 ; genPointerGet
                           5676 ; Removed redundent load
                           5677 ; Removed redundent load
   11C9 1A                 5678 	ld	a,(de)
   11CA 4F                 5679 	ld	c,a
   11CB 13                 5680 	inc	de
   11CC 1A                 5681 	ld	a,(de)
   11CD 47                 5682 	ld	b,a
                           5683 ; genRet
   11CE 59                 5684 	ld	e,c
   11CF 50                 5685 	ld	d,b
   11D0 C3 06 12           5686 	jp	00170$
                           5687 ;	sound.c 530
                           5688 ; genLabel
   11D3                    5689 00153$:
                           5690 ; genAssign
                           5691 ; AOP_HL for _soundReg
   11D3 21 0E 00           5692 	ld	hl,#_soundReg + 0
   11D6 4E                 5693 	ld	c,(hl)
   11D7 23                 5694 	inc	hl
   11D8 46                 5695 	ld	b,(hl)
                           5696 ; genPlus
                           5697 ; genPlusIncr
                           5698 ;	genPlusIncr failed
   11D9 79                 5699 	ld	a,c
   11DA C6 76              5700 	add	a,#0x76
   11DC 5F                 5701 	ld	e,a
   11DD 78                 5702 	ld	a,b
   11DE CE 00              5703 	adc	a,#0x00
   11E0 57                 5704 	ld	d,a
                           5705 ; genPointerGet
                           5706 ; Removed redundent load
                           5707 ; Removed redundent load
   11E1 1A                 5708 	ld	a,(de)
   11E2 4F                 5709 	ld	c,a
   11E3 13                 5710 	inc	de
   11E4 1A                 5711 	ld	a,(de)
   11E5 47                 5712 	ld	b,a
                           5713 ; genRet
   11E6 59                 5714 	ld	e,c
   11E7 50                 5715 	ld	d,b
   11E8 C3 06 12           5716 	jp	00170$
                           5717 ;	sound.c 532
                           5718 ; genLabel
   11EB                    5719 00154$:
                           5720 ; genAssign
                           5721 ; AOP_HL for _soundReg
   11EB 21 0E 00           5722 	ld	hl,#_soundReg + 0
   11EE 4E                 5723 	ld	c,(hl)
   11EF 23                 5724 	inc	hl
   11F0 46                 5725 	ld	b,(hl)
                           5726 ; genPlus
                           5727 ; genPlusIncr
                           5728 ;	genPlusIncr failed
   11F1 79                 5729 	ld	a,c
   11F2 C6 7E              5730 	add	a,#0x7E
   11F4 5F                 5731 	ld	e,a
   11F5 78                 5732 	ld	a,b
   11F6 CE 00              5733 	adc	a,#0x00
   11F8 57                 5734 	ld	d,a
                           5735 ; genPointerGet
                           5736 ; Removed redundent load
                           5737 ; Removed redundent load
   11F9 1A                 5738 	ld	a,(de)
   11FA 4F                 5739 	ld	c,a
   11FB 13                 5740 	inc	de
   11FC 1A                 5741 	ld	a,(de)
   11FD 47                 5742 	ld	b,a
                           5743 ; genRet
   11FE 59                 5744 	ld	e,c
   11FF 50                 5745 	ld	d,b
   1200 C3 06 12           5746 	jp	00170$
                           5747 ;	sound.c 533
                           5748 ; genLabel
   1203                    5749 00169$:
                           5750 ;	sound.c 535
                           5751 ; genRet
   1203 11 00 00           5752 	ld	de,#0x0000
                           5753 ; genLabel
   1206                    5754 00170$:
                           5755 ; genEndFunction
   1206 E8 02              5756 	lda	sp,2(sp)
   1208 C1                 5757 	pop	bc
   1209 C9                 5758 	ret
   120A                    5759 ___current_value_end:
                           5760 ;	sound.c 538
                           5761 ; genLabel
                           5762 ; genFunction
                           5763 ;	---------------------------------
                           5764 ; Function update_value
                           5765 ; ---------------------------------
   120A                    5766 ___update_value_start:
   120A                    5767 _update_value:
   120A C5                 5768 	push	bc
                           5769 	
                           5770 ;	sound.c 540
                           5771 ; genCmpEq
                           5772 ; AOP_STK for 
   120B F8 04              5773 	lda	hl,4(sp)
   120D 7E                 5774 	ld	a,(hl)
   120E B7                 5775 	or	a,a
   120F C2 14 12           5776 	jp	nz,00239$
   1212 18 03              5777 	jr	00240$
   1214                    5778 00239$:
   1214 C3 40 14           5779 	jp	00174$
   1217                    5780 00240$:
                           5781 ;	sound.c 541
                           5782 ; genCmpEq
                           5783 ; AOP_STK for 
   1217 F8 05              5784 	lda	hl,5(sp)
   1219 7E                 5785 	ld	a,(hl)
   121A B7                 5786 	or	a,a
                           5787 ; Rule 5
   121B CA 51 12           5788 	jp	z,00101$
   121E                    5789 00241$:
                           5790 ; genCmpEq
                           5791 ; AOP_STK for 
   121E F8 05              5792 	lda	hl,5(sp)
   1220 7E                 5793 	ld	a,(hl) ; 2
   1221 FE 01              5794 	cp	a,#0x01
                           5795 ; Rule 5
   1223 CA 70 12           5796 	jp	z,00102$
   1226                    5797 00242$:
                           5798 ; genCmpEq
                           5799 ; AOP_STK for 
   1226 F8 05              5800 	lda	hl,5(sp)
   1228 7E                 5801 	ld	a,(hl) ; 2
   1229 FE 02              5802 	cp	a,#0x02
                           5803 ; Rule 5
   122B CA 8F 12           5804 	jp	z,00103$
   122E                    5805 00243$:
                           5806 ; genCmpEq
                           5807 ; AOP_STK for 
   122E F8 05              5808 	lda	hl,5(sp)
   1230 7E                 5809 	ld	a,(hl) ; 2
   1231 FE 03              5810 	cp	a,#0x03
                           5811 ; Rule 5
   1233 CA AE 12           5812 	jp	z,00104$
   1236                    5813 00244$:
                           5814 ; genCmpEq
                           5815 ; AOP_STK for 
   1236 F8 05              5816 	lda	hl,5(sp)
   1238 7E                 5817 	ld	a,(hl) ; 2
   1239 FE 04              5818 	cp	a,#0x04
                           5819 ; Rule 5
   123B CA CD 12           5820 	jp	z,00105$
   123E                    5821 00245$:
                           5822 ; genCmpEq
                           5823 ; AOP_STK for 
   123E F8 05              5824 	lda	hl,5(sp)
   1240 7E                 5825 	ld	a,(hl) ; 2
   1241 FE 20              5826 	cp	a,#0x20
                           5827 ; Rule 5
   1243 CA 28 13           5828 	jp	z,00107$
   1246                    5829 00246$:
                           5830 ; genCmpEq
                           5831 ; AOP_STK for 
   1246 F8 05              5832 	lda	hl,5(sp)
   1248 7E                 5833 	ld	a,(hl) ; 2
   1249 FE 21              5834 	cp	a,#0x21
                           5835 ; Rule 5
   124B CA EC 12           5836 	jp	z,00106$
   124E                    5837 00247$:
                           5838 ; genGoto
   124E C3 98 1C           5839 	jp	00176$
                           5840 ;	sound.c 544
                           5841 ; genLabel
   1251                    5842 00101$:
                           5843 ; genAssign
                           5844 ; AOP_HL for _soundReg
   1251 21 0E 00           5845 	ld	hl,#_soundReg + 0
   1254 4E                 5846 	ld	c,(hl)
   1255 23                 5847 	inc	hl
   1256 46                 5848 	ld	b,(hl)
                           5849 ; genPlus
                           5850 ; genPlusIncr
                           5851 ;	genPlusIncr failed
   1257 79                 5852 	ld	a,c
   1258 C6 82              5853 	add	a,#0x82
   125A 5F                 5854 	ld	e,a
   125B 78                 5855 	ld	a,b
   125C CE 00              5856 	adc	a,#0x00
   125E 57                 5857 	ld	d,a
                           5858 ; genAssign (pointer)
                           5859 ; AOP_STK for 
   125F F8 06              5860 	lda	hl,6(sp)
   1261 7E                 5861 	ld	a,(hl)
   1262 12                 5862 	ld	(de),a
   1263 13                 5863 	inc	de
   1264 23                 5864 	inc	hl
   1265 7E                 5865 	ld	a,(hl)
   1266 12                 5866 	ld	(de),a
                           5867 ;	sound.c 545
                           5868 ; genCall
   1267 CD 6F 0B           5869 	call	_NR52
                           5870 ; AOP_SFR for _NR52_REG
   126A 7B                 5871 	ld	a,e
   126B E0 00              5872 	ldh	(_NR52_REG+0),a
                           5873 ;	sound.c 546
                           5874 ; genGoto
   126D C3 98 1C           5875 	jp	00176$
                           5876 ;	sound.c 548
                           5877 ; genLabel
   1270                    5878 00102$:
                           5879 ; genAssign
                           5880 ; AOP_HL for _soundReg
   1270 21 0E 00           5881 	ld	hl,#_soundReg + 0
   1273 4E                 5882 	ld	c,(hl)
   1274 23                 5883 	inc	hl
   1275 46                 5884 	ld	b,(hl)
                           5885 ; genPlus
                           5886 ; genPlusIncr
                           5887 ;	genPlusIncr failed
   1276 79                 5888 	ld	a,c
   1277 C6 62              5889 	add	a,#0x62
   1279 5F                 5890 	ld	e,a
   127A 78                 5891 	ld	a,b
   127B CE 00              5892 	adc	a,#0x00
   127D 57                 5893 	ld	d,a
                           5894 ; genAssign (pointer)
                           5895 ; AOP_STK for 
   127E F8 06              5896 	lda	hl,6(sp)
   1280 7E                 5897 	ld	a,(hl)
   1281 12                 5898 	ld	(de),a
   1282 13                 5899 	inc	de
   1283 23                 5900 	inc	hl
   1284 7E                 5901 	ld	a,(hl)
   1285 12                 5902 	ld	(de),a
                           5903 ;	sound.c 549
                           5904 ; genCall
   1286 CD B2 09           5905 	call	_NR50
                           5906 ; AOP_SFR for _NR50_REG
   1289 7B                 5907 	ld	a,e
   128A E0 00              5908 	ldh	(_NR50_REG+0),a
                           5909 ;	sound.c 550
                           5910 ; genGoto
   128C C3 98 1C           5911 	jp	00176$
                           5912 ;	sound.c 552
                           5913 ; genLabel
   128F                    5914 00103$:
                           5915 ; genAssign
                           5916 ; AOP_HL for _soundReg
   128F 21 0E 00           5917 	ld	hl,#_soundReg + 0
   1292 4E                 5918 	ld	c,(hl)
   1293 23                 5919 	inc	hl
   1294 46                 5920 	ld	b,(hl)
                           5921 ; genPlus
                           5922 ; genPlusIncr
                           5923 ;	genPlusIncr failed
   1295 79                 5924 	ld	a,c
   1296 C6 66              5925 	add	a,#0x66
   1298 5F                 5926 	ld	e,a
   1299 78                 5927 	ld	a,b
   129A CE 00              5928 	adc	a,#0x00
   129C 57                 5929 	ld	d,a
                           5930 ; genAssign (pointer)
                           5931 ; AOP_STK for 
   129D F8 06              5932 	lda	hl,6(sp)
   129F 7E                 5933 	ld	a,(hl)
   12A0 12                 5934 	ld	(de),a
   12A1 13                 5935 	inc	de
   12A2 23                 5936 	inc	hl
   12A3 7E                 5937 	ld	a,(hl)
   12A4 12                 5938 	ld	(de),a
                           5939 ;	sound.c 553
                           5940 ; genCall
   12A5 CD B2 09           5941 	call	_NR50
                           5942 ; AOP_SFR for _NR50_REG
   12A8 7B                 5943 	ld	a,e
   12A9 E0 00              5944 	ldh	(_NR50_REG+0),a
                           5945 ;	sound.c 554
                           5946 ; genGoto
   12AB C3 98 1C           5947 	jp	00176$
                           5948 ;	sound.c 556
                           5949 ; genLabel
   12AE                    5950 00104$:
                           5951 ; genAssign
                           5952 ; AOP_HL for _soundReg
   12AE 21 0E 00           5953 	ld	hl,#_soundReg + 0
   12B1 4E                 5954 	ld	c,(hl)
   12B2 23                 5955 	inc	hl
   12B3 46                 5956 	ld	b,(hl)
                           5957 ; genPlus
                           5958 ; genPlusIncr
                           5959 ;	genPlusIncr failed
   12B4 79                 5960 	ld	a,c
   12B5 C6 60              5961 	add	a,#0x60
   12B7 5F                 5962 	ld	e,a
   12B8 78                 5963 	ld	a,b
   12B9 CE 00              5964 	adc	a,#0x00
   12BB 57                 5965 	ld	d,a
                           5966 ; genAssign (pointer)
                           5967 ; AOP_STK for 
   12BC F8 06              5968 	lda	hl,6(sp)
   12BE 7E                 5969 	ld	a,(hl)
   12BF 12                 5970 	ld	(de),a
   12C0 13                 5971 	inc	de
   12C1 23                 5972 	inc	hl
   12C2 7E                 5973 	ld	a,(hl)
   12C3 12                 5974 	ld	(de),a
                           5975 ;	sound.c 557
                           5976 ; genCall
   12C4 CD B2 09           5977 	call	_NR50
                           5978 ; AOP_SFR for _NR50_REG
   12C7 7B                 5979 	ld	a,e
   12C8 E0 00              5980 	ldh	(_NR50_REG+0),a
                           5981 ;	sound.c 558
                           5982 ; genGoto
   12CA C3 98 1C           5983 	jp	00176$
                           5984 ;	sound.c 560
                           5985 ; genLabel
   12CD                    5986 00105$:
                           5987 ; genAssign
                           5988 ; AOP_HL for _soundReg
   12CD 21 0E 00           5989 	ld	hl,#_soundReg + 0
   12D0 4E                 5990 	ld	c,(hl)
   12D1 23                 5991 	inc	hl
   12D2 46                 5992 	ld	b,(hl)
                           5993 ; genPlus
                           5994 ; genPlusIncr
                           5995 ;	genPlusIncr failed
   12D3 79                 5996 	ld	a,c
   12D4 C6 64              5997 	add	a,#0x64
   12D6 5F                 5998 	ld	e,a
   12D7 78                 5999 	ld	a,b
   12D8 CE 00              6000 	adc	a,#0x00
   12DA 57                 6001 	ld	d,a
                           6002 ; genAssign (pointer)
                           6003 ; AOP_STK for 
   12DB F8 06              6004 	lda	hl,6(sp)
   12DD 7E                 6005 	ld	a,(hl)
   12DE 12                 6006 	ld	(de),a
   12DF 13                 6007 	inc	de
   12E0 23                 6008 	inc	hl
   12E1 7E                 6009 	ld	a,(hl)
   12E2 12                 6010 	ld	(de),a
                           6011 ;	sound.c 561
                           6012 ; genCall
   12E3 CD B2 09           6013 	call	_NR50
                           6014 ; AOP_SFR for _NR50_REG
   12E6 7B                 6015 	ld	a,e
   12E7 E0 00              6016 	ldh	(_NR50_REG+0),a
                           6017 ;	sound.c 562
                           6018 ; genGoto
   12E9 C3 98 1C           6019 	jp	00176$
                           6020 ;	sound.c 564
                           6021 ; genLabel
   12EC                    6022 00106$:
                           6023 ; genIpush
                           6024 ; AOP_STK for 
   12EC F8 06              6025 	lda	hl,6(sp)
   12EE 2A                 6026 	ld	a,(hl+)
   12EF 66                 6027 	ld	h,(hl)
   12F0 6F                 6028 	ld	l,a
   12F1 E5                 6029 	push	hl
                           6030 ; genIpush
   12F2 3E 21              6031 	ld	a,#0x21
   12F4 F5                 6032 	push	af
   12F5 33                 6033 	inc	sp
                           6034 ; genIpush
   12F6 3E 01              6035 	ld	a,#0x01
   12F8 F5                 6036 	push	af
   12F9 33                 6037 	inc	sp
                           6038 ; genCall
   12FA CD 0A 12           6039 	call	_update_value
   12FD E8 04              6040 	lda	sp,4(sp)
                           6041 ;	sound.c 565
                           6042 ; genIpush
                           6043 ; AOP_STK for 
   12FF F8 06              6044 	lda	hl,6(sp)
   1301 2A                 6045 	ld	a,(hl+)
   1302 66                 6046 	ld	h,(hl)
   1303 6F                 6047 	ld	l,a
   1304 E5                 6048 	push	hl
                           6049 ; genIpush
   1305 3E 21              6050 	ld	a,#0x21
   1307 F5                 6051 	push	af
   1308 33                 6052 	inc	sp
                           6053 ; genIpush
   1309 3E 02              6054 	ld	a,#0x02
   130B F5                 6055 	push	af
   130C 33                 6056 	inc	sp
                           6057 ; genCall
   130D CD 0A 12           6058 	call	_update_value
   1310 E8 04              6059 	lda	sp,4(sp)
                           6060 ;	sound.c 566
                           6061 ; genIpush
                           6062 ; AOP_STK for 
   1312 F8 06              6063 	lda	hl,6(sp)
   1314 2A                 6064 	ld	a,(hl+)
   1315 66                 6065 	ld	h,(hl)
   1316 6F                 6066 	ld	l,a
   1317 E5                 6067 	push	hl
                           6068 ; genIpush
   1318 3E 21              6069 	ld	a,#0x21
   131A F5                 6070 	push	af
   131B 33                 6071 	inc	sp
                           6072 ; genIpush
   131C 3E 03              6073 	ld	a,#0x03
   131E F5                 6074 	push	af
   131F 33                 6075 	inc	sp
                           6076 ; genCall
   1320 CD 0A 12           6077 	call	_update_value
   1323 E8 04              6078 	lda	sp,4(sp)
                           6079 ;	sound.c 567
                           6080 ; genGoto
   1325 C3 98 1C           6081 	jp	00176$
                           6082 ;	sound.c 569
                           6083 ; genLabel
   1328                    6084 00107$:
                           6085 ; genIpush
   1328 3E 21              6086 	ld	a,#0x21
   132A F5                 6087 	push	af
   132B 33                 6088 	inc	sp
                           6089 ; genIpush
   132C 3E 01              6090 	ld	a,#0x01
   132E F5                 6091 	push	af
   132F 33                 6092 	inc	sp
                           6093 ; genCall
   1330 CD 92 0B           6094 	call	_current_value
   1333 42                 6095 	ld	b,d
   1334 4B                 6096 	ld	c,e
   1335 E8 02              6097 	lda	sp,2(sp)
                           6098 ; genIpush
   1337 C5                 6099 	push	bc
                           6100 ; genIpush
   1338 3E 21              6101 	ld	a,#0x21
   133A F5                 6102 	push	af
   133B 33                 6103 	inc	sp
                           6104 ; genIpush
   133C 3E 01              6105 	ld	a,#0x01
   133E F5                 6106 	push	af
   133F 33                 6107 	inc	sp
                           6108 ; genCall
   1340 CD 0A 12           6109 	call	_update_value
   1343 E8 04              6110 	lda	sp,4(sp)
                           6111 ;	sound.c 570
                           6112 ; genIpush
   1345 3E 21              6113 	ld	a,#0x21
   1347 F5                 6114 	push	af
   1348 33                 6115 	inc	sp
                           6116 ; genIpush
   1349 3E 02              6117 	ld	a,#0x02
   134B F5                 6118 	push	af
   134C 33                 6119 	inc	sp
                           6120 ; genCall
   134D CD 92 0B           6121 	call	_current_value
   1350 42                 6122 	ld	b,d
   1351 4B                 6123 	ld	c,e
   1352 E8 02              6124 	lda	sp,2(sp)
                           6125 ; genIpush
   1354 C5                 6126 	push	bc
                           6127 ; genIpush
   1355 3E 21              6128 	ld	a,#0x21
   1357 F5                 6129 	push	af
   1358 33                 6130 	inc	sp
                           6131 ; genIpush
   1359 3E 02              6132 	ld	a,#0x02
   135B F5                 6133 	push	af
   135C 33                 6134 	inc	sp
                           6135 ; genCall
   135D CD 0A 12           6136 	call	_update_value
   1360 E8 04              6137 	lda	sp,4(sp)
                           6138 ;	sound.c 571
                           6139 ; genIpush
   1362 3E 21              6140 	ld	a,#0x21
   1364 F5                 6141 	push	af
   1365 33                 6142 	inc	sp
                           6143 ; genIpush
   1366 3E 03              6144 	ld	a,#0x03
   1368 F5                 6145 	push	af
   1369 33                 6146 	inc	sp
                           6147 ; genCall
   136A CD 92 0B           6148 	call	_current_value
   136D 42                 6149 	ld	b,d
   136E 4B                 6150 	ld	c,e
   136F E8 02              6151 	lda	sp,2(sp)
                           6152 ; genIpush
   1371 C5                 6153 	push	bc
                           6154 ; genIpush
   1372 3E 21              6155 	ld	a,#0x21
   1374 F5                 6156 	push	af
   1375 33                 6157 	inc	sp
                           6158 ; genIpush
   1376 3E 03              6159 	ld	a,#0x03
   1378 F5                 6160 	push	af
   1379 33                 6161 	inc	sp
                           6162 ; genCall
   137A CD 0A 12           6163 	call	_update_value
   137D E8 04              6164 	lda	sp,4(sp)
                           6165 ;	sound.c 572
                           6166 ; genAssign
                           6167 ; AOP_HL for _soundReg
   137F 21 0E 00           6168 	ld	hl,#_soundReg + 0
   1382 4E                 6169 	ld	c,(hl)
   1383 23                 6170 	inc	hl
   1384 46                 6171 	ld	b,(hl)
                           6172 ; genPlus
                           6173 ; genPlusIncr
                           6174 ;	genPlusIncr failed
   1385 79                 6175 	ld	a,c
   1386 C6 1A              6176 	add	a,#0x1A
   1388 5F                 6177 	ld	e,a
   1389 78                 6178 	ld	a,b
   138A CE 00              6179 	adc	a,#0x00
   138C 57                 6180 	ld	d,a
                           6181 ; genAssign (pointer)
                           6182 ; AOP_STK for 
   138D F8 06              6183 	lda	hl,6(sp)
   138F 7E                 6184 	ld	a,(hl)
   1390 12                 6185 	ld	(de),a
   1391 13                 6186 	inc	de
   1392 23                 6187 	inc	hl
   1393 7E                 6188 	ld	a,(hl)
   1394 12                 6189 	ld	(de),a
                           6190 ;	sound.c 573
                           6191 ; genAssign
                           6192 ; AOP_HL for _soundReg
   1395 21 0E 00           6193 	ld	hl,#_soundReg + 0
   1398 4E                 6194 	ld	c,(hl)
   1399 23                 6195 	inc	hl
   139A 46                 6196 	ld	b,(hl)
                           6197 ; genPlus
                           6198 ; genPlusIncr
                           6199 ;	genPlusIncr failed
   139B 79                 6200 	ld	a,c
   139C C6 30              6201 	add	a,#0x30
   139E 5F                 6202 	ld	e,a
   139F 78                 6203 	ld	a,b
   13A0 CE 00              6204 	adc	a,#0x00
   13A2 57                 6205 	ld	d,a
                           6206 ; genAssign (pointer)
                           6207 ; AOP_STK for 
   13A3 F8 06              6208 	lda	hl,6(sp)
   13A5 7E                 6209 	ld	a,(hl)
   13A6 12                 6210 	ld	(de),a
   13A7 13                 6211 	inc	de
   13A8 23                 6212 	inc	hl
   13A9 7E                 6213 	ld	a,(hl)
   13AA 12                 6214 	ld	(de),a
                           6215 ;	sound.c 574
                           6216 ; genAssign
                           6217 ; AOP_HL for _soundReg
   13AB 21 0E 00           6218 	ld	hl,#_soundReg + 0
   13AE 4E                 6219 	ld	c,(hl)
   13AF 23                 6220 	inc	hl
   13B0 46                 6221 	ld	b,(hl)
                           6222 ; genPlus
                           6223 ; genPlusIncr
                           6224 ;	genPlusIncr failed
   13B1 79                 6225 	ld	a,c
   13B2 C6 46              6226 	add	a,#0x46
   13B4 5F                 6227 	ld	e,a
   13B5 78                 6228 	ld	a,b
   13B6 CE 00              6229 	adc	a,#0x00
   13B8 57                 6230 	ld	d,a
                           6231 ; genAssign (pointer)
                           6232 ; AOP_STK for 
   13B9 F8 06              6233 	lda	hl,6(sp)
   13BB 7E                 6234 	ld	a,(hl)
   13BC 12                 6235 	ld	(de),a
   13BD 13                 6236 	inc	de
   13BE 23                 6237 	inc	hl
   13BF 7E                 6238 	ld	a,(hl)
   13C0 12                 6239 	ld	(de),a
                           6240 ;	sound.c 575
                           6241 ; genAssign
                           6242 ; AOP_HL for _soundReg
   13C1 21 0E 00           6243 	ld	hl,#_soundReg + 0
   13C4 4E                 6244 	ld	c,(hl)
   13C5 23                 6245 	inc	hl
   13C6 46                 6246 	ld	b,(hl)
                           6247 ; genPlus
                           6248 ; genPlusIncr
                           6249 ;	genPlusIncr failed
   13C7 79                 6250 	ld	a,c
   13C8 C6 5E              6251 	add	a,#0x5E
   13CA 5F                 6252 	ld	e,a
   13CB 78                 6253 	ld	a,b
   13CC CE 00              6254 	adc	a,#0x00
   13CE 57                 6255 	ld	d,a
                           6256 ; genAssign (pointer)
                           6257 ; AOP_STK for 
   13CF F8 06              6258 	lda	hl,6(sp)
   13D1 7E                 6259 	ld	a,(hl)
   13D2 12                 6260 	ld	(de),a
   13D3 13                 6261 	inc	de
   13D4 23                 6262 	inc	hl
   13D5 7E                 6263 	ld	a,(hl)
   13D6 12                 6264 	ld	(de),a
                           6265 ;	sound.c 576
                           6266 ; genCall
   13D7 CD E5 05           6267 	call	_NR14
                           6268 ; AOP_SFR for _NR14_REG
   13DA 7B                 6269 	ld	a,e
   13DB E0 00              6270 	ldh	(_NR14_REG+0),a
                           6271 ;	sound.c 577
                           6272 ; genCall
   13DD CD 1C 07           6273 	call	_NR24
                           6274 ; AOP_SFR for _NR24_REG
   13E0 7B                 6275 	ld	a,e
   13E1 E0 00              6276 	ldh	(_NR24_REG+0),a
                           6277 ;	sound.c 578
                           6278 ; genCall
   13E3 CD FD 07           6279 	call	_NR34
                           6280 ; AOP_SFR for _NR34_REG
   13E6 7B                 6281 	ld	a,e
   13E7 E0 00              6282 	ldh	(_NR34_REG+0),a
                           6283 ;	sound.c 579
                           6284 ; genCall
   13E9 CD 5B 09           6285 	call	_NR44
                           6286 ; AOP_SFR for _NR44_REG
   13EC 7B                 6287 	ld	a,e
   13ED E0 00              6288 	ldh	(_NR44_REG+0),a
                           6289 ;	sound.c 580
                           6290 ; genAssign
                           6291 ; AOP_HL for _soundReg
   13EF 21 0E 00           6292 	ld	hl,#_soundReg + 0
   13F2 4E                 6293 	ld	c,(hl)
   13F3 23                 6294 	inc	hl
   13F4 46                 6295 	ld	b,(hl)
                           6296 ; genPlus
                           6297 ; genPlusIncr
                           6298 ;	genPlusIncr failed
   13F5 79                 6299 	ld	a,c
   13F6 C6 1A              6300 	add	a,#0x1A
   13F8 5F                 6301 	ld	e,a
   13F9 78                 6302 	ld	a,b
   13FA CE 00              6303 	adc	a,#0x00
   13FC 57                 6304 	ld	d,a
                           6305 ; genAssign (pointer)
   13FD 3E 00              6306 	ld	a,#0x00
   13FF 12                 6307 	ld	(de),a
   1400 13                 6308 	inc	de
   1401 3E 00              6309 	ld	a,#0x00
   1403 12                 6310 	ld	(de),a
                           6311 ;	sound.c 581
                           6312 ; genAssign
                           6313 ; AOP_HL for _soundReg
   1404 2B                 6314 	dec	hl
   1405 4E                 6315 	ld	c,(hl)
   1406 23                 6316 	inc	hl
   1407 46                 6317 	ld	b,(hl)
                           6318 ; genPlus
                           6319 ; genPlusIncr
                           6320 ;	genPlusIncr failed
   1408 79                 6321 	ld	a,c
   1409 C6 30              6322 	add	a,#0x30
   140B 5F                 6323 	ld	e,a
   140C 78                 6324 	ld	a,b
   140D CE 00              6325 	adc	a,#0x00
   140F 57                 6326 	ld	d,a
                           6327 ; genAssign (pointer)
   1410 3E 00              6328 	ld	a,#0x00
   1412 12                 6329 	ld	(de),a
   1413 13                 6330 	inc	de
   1414 3E 00              6331 	ld	a,#0x00
   1416 12                 6332 	ld	(de),a
                           6333 ;	sound.c 582
                           6334 ; genAssign
                           6335 ; AOP_HL for _soundReg
   1417 2B                 6336 	dec	hl
   1418 4E                 6337 	ld	c,(hl)
   1419 23                 6338 	inc	hl
   141A 46                 6339 	ld	b,(hl)
                           6340 ; genPlus
                           6341 ; genPlusIncr
                           6342 ;	genPlusIncr failed
   141B 79                 6343 	ld	a,c
   141C C6 46              6344 	add	a,#0x46
   141E 5F                 6345 	ld	e,a
   141F 78                 6346 	ld	a,b
   1420 CE 00              6347 	adc	a,#0x00
   1422 57                 6348 	ld	d,a
                           6349 ; genAssign (pointer)
   1423 3E 00              6350 	ld	a,#0x00
   1425 12                 6351 	ld	(de),a
   1426 13                 6352 	inc	de
   1427 3E 00              6353 	ld	a,#0x00
   1429 12                 6354 	ld	(de),a
                           6355 ;	sound.c 583
                           6356 ; genAssign
                           6357 ; AOP_HL for _soundReg
   142A 2B                 6358 	dec	hl
   142B 4E                 6359 	ld	c,(hl)
   142C 23                 6360 	inc	hl
   142D 46                 6361 	ld	b,(hl)
                           6362 ; genPlus
                           6363 ; genPlusIncr
                           6364 ;	genPlusIncr failed
   142E 79                 6365 	ld	a,c
   142F C6 5E              6366 	add	a,#0x5E
   1431 5F                 6367 	ld	e,a
   1432 78                 6368 	ld	a,b
   1433 CE 00              6369 	adc	a,#0x00
   1435 57                 6370 	ld	d,a
                           6371 ; genAssign (pointer)
   1436 3E 00              6372 	ld	a,#0x00
   1438 12                 6373 	ld	(de),a
   1439 13                 6374 	inc	de
   143A 3E 00              6375 	ld	a,#0x00
   143C 12                 6376 	ld	(de),a
                           6377 ;	sound.c 585
                           6378 ; genGoto
   143D C3 98 1C           6379 	jp	00176$
                           6380 ; genLabel
   1440                    6381 00174$:
                           6382 ;	sound.c 586
                           6383 ; genCmpEq
                           6384 ; AOP_STK for 
   1440 F8 04              6385 	lda	hl,4(sp)
   1442 7E                 6386 	ld	a,(hl) ; 2
   1443 FE 01              6387 	cp	a,#0x01
   1445 C2 4A 14           6388 	jp	nz,00248$
   1448 18 03              6389 	jr	00249$
   144A                    6390 00248$:
   144A C3 C1 16           6391 	jp	00171$
   144D                    6392 00249$:
                           6393 ;	sound.c 587
                           6394 ; genCmpEq
                           6395 ; AOP_STK for 
   144D F8 05              6396 	lda	hl,5(sp)
   144F 7E                 6397 	ld	a,(hl)
   1450 B7                 6398 	or	a,a
                           6399 ; Rule 5
   1451 CA C7 14           6400 	jp	z,00109$
   1454                    6401 00250$:
                           6402 ; genCmpEq
                           6403 ; AOP_STK for 
   1454 F8 05              6404 	lda	hl,5(sp)
   1456 7E                 6405 	ld	a,(hl) ; 2
   1457 FE 01              6406 	cp	a,#0x01
                           6407 ; Rule 5
   1459 CA E6 14           6408 	jp	z,00110$
   145C                    6409 00251$:
                           6410 ; genCmpEq
                           6411 ; AOP_STK for 
   145C F8 05              6412 	lda	hl,5(sp)
   145E 7E                 6413 	ld	a,(hl) ; 2
   145F FE 02              6414 	cp	a,#0x02
                           6415 ; Rule 5
   1461 CA 01 15           6416 	jp	z,00111$
   1464                    6417 00252$:
                           6418 ; genCmpEq
                           6419 ; AOP_STK for 
   1464 F8 05              6420 	lda	hl,5(sp)
   1466 7E                 6421 	ld	a,(hl) ; 2
   1467 FE 03              6422 	cp	a,#0x03
                           6423 ; Rule 5
   1469 CA 18 15           6424 	jp	z,00112$
   146C                    6425 00253$:
                           6426 ; genCmpEq
                           6427 ; AOP_STK for 
   146C F8 05              6428 	lda	hl,5(sp)
   146E 7E                 6429 	ld	a,(hl) ; 2
   146F FE 04              6430 	cp	a,#0x04
                           6431 ; Rule 5
   1471 CA 37 15           6432 	jp	z,00113$
   1474                    6433 00254$:
                           6434 ; genCmpEq
                           6435 ; AOP_STK for 
   1474 F8 05              6436 	lda	hl,5(sp)
   1476 7E                 6437 	ld	a,(hl) ; 2
   1477 FE 05              6438 	cp	a,#0x05
                           6439 ; Rule 5
   1479 CA 56 15           6440 	jp	z,00114$
   147C                    6441 00255$:
                           6442 ; genCmpEq
                           6443 ; AOP_STK for 
   147C F8 05              6444 	lda	hl,5(sp)
   147E 7E                 6445 	ld	a,(hl) ; 2
   147F FE 06              6446 	cp	a,#0x06
                           6447 ; Rule 5
   1481 CA 75 15           6448 	jp	z,00115$
   1484                    6449 00256$:
                           6450 ; genCmpEq
                           6451 ; AOP_STK for 
   1484 F8 05              6452 	lda	hl,5(sp)
   1486 7E                 6453 	ld	a,(hl) ; 2
   1487 FE 07              6454 	cp	a,#0x07
                           6455 ; Rule 5
   1489 CA 94 15           6456 	jp	z,00116$
   148C                    6457 00257$:
                           6458 ; genCmpEq
                           6459 ; AOP_STK for 
   148C F8 05              6460 	lda	hl,5(sp)
   148E 7E                 6461 	ld	a,(hl) ; 2
   148F FE 08              6462 	cp	a,#0x08
                           6463 ; Rule 5
   1491 CA B3 15           6464 	jp	z,00117$
   1494                    6465 00258$:
                           6466 ; genCmpEq
                           6467 ; AOP_STK for 
   1494 F8 05              6468 	lda	hl,5(sp)
   1496 7E                 6469 	ld	a,(hl) ; 2
   1497 FE 09              6470 	cp	a,#0x09
                           6471 ; Rule 5
   1499 CA F2 15           6472 	jp	z,00119$
   149C                    6473 00259$:
                           6474 ; genCmpEq
                           6475 ; AOP_STK for 
   149C F8 05              6476 	lda	hl,5(sp)
   149E 7E                 6477 	ld	a,(hl) ; 2
   149F FE 0A              6478 	cp	a,#0x0A
                           6479 ; Rule 5
   14A1 CA 11 16           6480 	jp	z,00120$
   14A4                    6481 00260$:
                           6482 ; genCmpEq
                           6483 ; AOP_STK for 
   14A4 F8 05              6484 	lda	hl,5(sp)
   14A6 7E                 6485 	ld	a,(hl) ; 2
   14A7 FE 0B              6486 	cp	a,#0x0B
                           6487 ; Rule 5
   14A9 CA 30 16           6488 	jp	z,00121$
   14AC                    6489 00261$:
                           6490 ; genCmpEq
                           6491 ; AOP_STK for 
   14AC F8 05              6492 	lda	hl,5(sp)
   14AE 7E                 6493 	ld	a,(hl) ; 2
   14AF FE 0C              6494 	cp	a,#0x0C
                           6495 ; Rule 5
   14B1 CA 4F 16           6496 	jp	z,00122$
   14B4                    6497 00262$:
                           6498 ; genCmpEq
                           6499 ; AOP_STK for 
   14B4 F8 05              6500 	lda	hl,5(sp)
   14B6 7E                 6501 	ld	a,(hl) ; 2
   14B7 FE 20              6502 	cp	a,#0x20
                           6503 ; Rule 5
   14B9 CA 6E 16           6504 	jp	z,00123$
   14BC                    6505 00263$:
                           6506 ; genCmpEq
                           6507 ; AOP_STK for 
   14BC F8 05              6508 	lda	hl,5(sp)
   14BE 7E                 6509 	ld	a,(hl) ; 2
   14BF FE 21              6510 	cp	a,#0x21
                           6511 ; Rule 5
   14C1 CA B3 15           6512 	jp	z,00117$
   14C4                    6513 00264$:
                           6514 ; genGoto
   14C4 C3 98 1C           6515 	jp	00176$
                           6516 ;	sound.c 590
                           6517 ; genLabel
   14C7                    6518 00109$:
                           6519 ; genAssign
                           6520 ; AOP_HL for _soundReg
   14C7 21 0E 00           6521 	ld	hl,#_soundReg + 0
   14CA 4E                 6522 	ld	c,(hl)
   14CB 23                 6523 	inc	hl
   14CC 46                 6524 	ld	b,(hl)
                           6525 ; genPlus
                           6526 ; genPlusIncr
                           6527 ;	genPlusIncr failed
   14CD 79                 6528 	ld	a,c
   14CE C6 04              6529 	add	a,#0x04
   14D0 5F                 6530 	ld	e,a
   14D1 78                 6531 	ld	a,b
   14D2 CE 00              6532 	adc	a,#0x00
   14D4 57                 6533 	ld	d,a
                           6534 ; genAssign (pointer)
                           6535 ; AOP_STK for 
   14D5 F8 06              6536 	lda	hl,6(sp)
   14D7 7E                 6537 	ld	a,(hl)
   14D8 12                 6538 	ld	(de),a
   14D9 13                 6539 	inc	de
   14DA 23                 6540 	inc	hl
   14DB 7E                 6541 	ld	a,(hl)
   14DC 12                 6542 	ld	(de),a
                           6543 ;	sound.c 591
                           6544 ; genCall
   14DD CD F2 00           6545 	call	_NR10
                           6546 ; AOP_SFR for _NR10_REG
   14E0 7B                 6547 	ld	a,e
   14E1 E0 00              6548 	ldh	(_NR10_REG+0),a
                           6549 ;	sound.c 592
                           6550 ; genGoto
   14E3 C3 98 1C           6551 	jp	00176$
                           6552 ;	sound.c 594
                           6553 ; genLabel
   14E6                    6554 00110$:
                           6555 ; genAssign
                           6556 ; AOP_HL for _soundReg
   14E6 21 0E 00           6557 	ld	hl,#_soundReg + 0
   14E9 4E                 6558 	ld	c,(hl)
   14EA 23                 6559 	inc	hl
   14EB 46                 6560 	ld	b,(hl)
                           6561 ; genPlus
                           6562 ; genPlusIncr
   14EC 59                 6563 	ld	e,c
   14ED 50                 6564 	ld	d,b
   14EE 13                 6565 	inc	de
   14EF 13                 6566 	inc	de
                           6567 ; genAssign (pointer)
                           6568 ; AOP_STK for 
   14F0 F8 06              6569 	lda	hl,6(sp)
   14F2 7E                 6570 	ld	a,(hl)
   14F3 12                 6571 	ld	(de),a
   14F4 13                 6572 	inc	de
   14F5 23                 6573 	inc	hl
   14F6 7E                 6574 	ld	a,(hl)
   14F7 12                 6575 	ld	(de),a
                           6576 ;	sound.c 595
                           6577 ; genCall
   14F8 CD F2 00           6578 	call	_NR10
                           6579 ; AOP_SFR for _NR10_REG
   14FB 7B                 6580 	ld	a,e
   14FC E0 00              6581 	ldh	(_NR10_REG+0),a
                           6582 ;	sound.c 596
                           6583 ; genGoto
   14FE C3 98 1C           6584 	jp	00176$
                           6585 ;	sound.c 598
                           6586 ; genLabel
   1501                    6587 00111$:
                           6588 ; genAssign
                           6589 ; AOP_HL for _soundReg
   1501 21 0E 00           6590 	ld	hl,#_soundReg + 0
   1504 5E                 6591 	ld	e,(hl)
   1505 23                 6592 	inc	hl
   1506 56                 6593 	ld	d,(hl)
                           6594 ; genAssign (pointer)
                           6595 ; AOP_STK for 
   1507 F8 06              6596 	lda	hl,6(sp)
   1509 7E                 6597 	ld	a,(hl)
   150A 12                 6598 	ld	(de),a
   150B 13                 6599 	inc	de
   150C 23                 6600 	inc	hl
   150D 7E                 6601 	ld	a,(hl)
   150E 12                 6602 	ld	(de),a
                           6603 ;	sound.c 599
                           6604 ; genCall
   150F CD F2 00           6605 	call	_NR10
                           6606 ; AOP_SFR for _NR10_REG
   1512 7B                 6607 	ld	a,e
   1513 E0 00              6608 	ldh	(_NR10_REG+0),a
                           6609 ;	sound.c 600
                           6610 ; genGoto
   1515 C3 98 1C           6611 	jp	00176$
                           6612 ;	sound.c 602
                           6613 ; genLabel
   1518                    6614 00112$:
                           6615 ; genAssign
                           6616 ; AOP_HL for _soundReg
   1518 21 0E 00           6617 	ld	hl,#_soundReg + 0
   151B 4E                 6618 	ld	c,(hl)
   151C 23                 6619 	inc	hl
   151D 46                 6620 	ld	b,(hl)
                           6621 ; genPlus
                           6622 ; genPlusIncr
                           6623 ;	genPlusIncr failed
   151E 79                 6624 	ld	a,c
   151F C6 0A              6625 	add	a,#0x0A
   1521 5F                 6626 	ld	e,a
   1522 78                 6627 	ld	a,b
   1523 CE 00              6628 	adc	a,#0x00
   1525 57                 6629 	ld	d,a
                           6630 ; genAssign (pointer)
                           6631 ; AOP_STK for 
   1526 F8 06              6632 	lda	hl,6(sp)
   1528 7E                 6633 	ld	a,(hl)
   1529 12                 6634 	ld	(de),a
   152A 13                 6635 	inc	de
   152B 23                 6636 	inc	hl
   152C 7E                 6637 	ld	a,(hl)
   152D 12                 6638 	ld	(de),a
                           6639 ;	sound.c 603
                           6640 ; genCall
   152E CD 1B 05           6641 	call	_NR11
                           6642 ; AOP_SFR for _NR11_REG
   1531 7B                 6643 	ld	a,e
   1532 E0 00              6644 	ldh	(_NR11_REG+0),a
                           6645 ;	sound.c 604
                           6646 ; genGoto
   1534 C3 98 1C           6647 	jp	00176$
                           6648 ;	sound.c 606
                           6649 ; genLabel
   1537                    6650 00113$:
                           6651 ; genAssign
                           6652 ; AOP_HL for _soundReg
   1537 21 0E 00           6653 	ld	hl,#_soundReg + 0
   153A 4E                 6654 	ld	c,(hl)
   153B 23                 6655 	inc	hl
   153C 46                 6656 	ld	b,(hl)
                           6657 ; genPlus
                           6658 ; genPlusIncr
                           6659 ;	genPlusIncr failed
   153D 79                 6660 	ld	a,c
   153E C6 08              6661 	add	a,#0x08
   1540 5F                 6662 	ld	e,a
   1541 78                 6663 	ld	a,b
   1542 CE 00              6664 	adc	a,#0x00
   1544 57                 6665 	ld	d,a
                           6666 ; genAssign (pointer)
                           6667 ; AOP_STK for 
   1545 F8 06              6668 	lda	hl,6(sp)
   1547 7E                 6669 	ld	a,(hl)
   1548 12                 6670 	ld	(de),a
   1549 13                 6671 	inc	de
   154A 23                 6672 	inc	hl
   154B 7E                 6673 	ld	a,(hl)
   154C 12                 6674 	ld	(de),a
                           6675 ;	sound.c 607
                           6676 ; genCall
   154D CD 1B 05           6677 	call	_NR11
                           6678 ; AOP_SFR for _NR11_REG
   1550 7B                 6679 	ld	a,e
   1551 E0 00              6680 	ldh	(_NR11_REG+0),a
                           6681 ;	sound.c 608
                           6682 ; genGoto
   1553 C3 98 1C           6683 	jp	00176$
                           6684 ;	sound.c 610
                           6685 ; genLabel
   1556                    6686 00114$:
                           6687 ; genAssign
                           6688 ; AOP_HL for _soundReg
   1556 21 0E 00           6689 	ld	hl,#_soundReg + 0
   1559 4E                 6690 	ld	c,(hl)
   155A 23                 6691 	inc	hl
   155B 46                 6692 	ld	b,(hl)
                           6693 ; genPlus
                           6694 ; genPlusIncr
                           6695 ;	genPlusIncr failed
   155C 79                 6696 	ld	a,c
   155D C6 10              6697 	add	a,#0x10
   155F 5F                 6698 	ld	e,a
   1560 78                 6699 	ld	a,b
   1561 CE 00              6700 	adc	a,#0x00
   1563 57                 6701 	ld	d,a
                           6702 ; genAssign (pointer)
                           6703 ; AOP_STK for 
   1564 F8 06              6704 	lda	hl,6(sp)
   1566 7E                 6705 	ld	a,(hl)
   1567 12                 6706 	ld	(de),a
   1568 13                 6707 	inc	de
   1569 23                 6708 	inc	hl
   156A 7E                 6709 	ld	a,(hl)
   156B 12                 6710 	ld	(de),a
                           6711 ;	sound.c 611
                           6712 ; genCall
   156C CD 61 05           6713 	call	_NR12
                           6714 ; AOP_SFR for _NR12_REG
   156F 7B                 6715 	ld	a,e
   1570 E0 00              6716 	ldh	(_NR12_REG+0),a
                           6717 ;	sound.c 612
                           6718 ; genGoto
   1572 C3 98 1C           6719 	jp	00176$
                           6720 ;	sound.c 614
                           6721 ; genLabel
   1575                    6722 00115$:
                           6723 ; genAssign
                           6724 ; AOP_HL for _soundReg
   1575 21 0E 00           6725 	ld	hl,#_soundReg + 0
   1578 4E                 6726 	ld	c,(hl)
   1579 23                 6727 	inc	hl
   157A 46                 6728 	ld	b,(hl)
                           6729 ; genPlus
                           6730 ; genPlusIncr
                           6731 ;	genPlusIncr failed
   157B 79                 6732 	ld	a,c
   157C C6 0E              6733 	add	a,#0x0E
   157E 5F                 6734 	ld	e,a
   157F 78                 6735 	ld	a,b
   1580 CE 00              6736 	adc	a,#0x00
   1582 57                 6737 	ld	d,a
                           6738 ; genAssign (pointer)
                           6739 ; AOP_STK for 
   1583 F8 06              6740 	lda	hl,6(sp)
   1585 7E                 6741 	ld	a,(hl)
   1586 12                 6742 	ld	(de),a
   1587 13                 6743 	inc	de
   1588 23                 6744 	inc	hl
   1589 7E                 6745 	ld	a,(hl)
   158A 12                 6746 	ld	(de),a
                           6747 ;	sound.c 615
                           6748 ; genCall
   158B CD 61 05           6749 	call	_NR12
                           6750 ; AOP_SFR for _NR12_REG
   158E 7B                 6751 	ld	a,e
   158F E0 00              6752 	ldh	(_NR12_REG+0),a
                           6753 ;	sound.c 616
                           6754 ; genGoto
   1591 C3 98 1C           6755 	jp	00176$
                           6756 ;	sound.c 618
                           6757 ; genLabel
   1594                    6758 00116$:
                           6759 ; genAssign
                           6760 ; AOP_HL for _soundReg
   1594 21 0E 00           6761 	ld	hl,#_soundReg + 0
   1597 4E                 6762 	ld	c,(hl)
   1598 23                 6763 	inc	hl
   1599 46                 6764 	ld	b,(hl)
                           6765 ; genPlus
                           6766 ; genPlusIncr
                           6767 ;	genPlusIncr failed
   159A 79                 6768 	ld	a,c
   159B C6 0C              6769 	add	a,#0x0C
   159D 5F                 6770 	ld	e,a
   159E 78                 6771 	ld	a,b
   159F CE 00              6772 	adc	a,#0x00
   15A1 57                 6773 	ld	d,a
                           6774 ; genAssign (pointer)
                           6775 ; AOP_STK for 
   15A2 F8 06              6776 	lda	hl,6(sp)
   15A4 7E                 6777 	ld	a,(hl)
   15A5 12                 6778 	ld	(de),a
   15A6 13                 6779 	inc	de
   15A7 23                 6780 	inc	hl
   15A8 7E                 6781 	ld	a,(hl)
   15A9 12                 6782 	ld	(de),a
                           6783 ;	sound.c 619
                           6784 ; genCall
   15AA CD 61 05           6785 	call	_NR12
                           6786 ; AOP_SFR for _NR12_REG
   15AD 7B                 6787 	ld	a,e
   15AE E0 00              6788 	ldh	(_NR12_REG+0),a
                           6789 ;	sound.c 620
                           6790 ; genGoto
   15B0 C3 98 1C           6791 	jp	00176$
                           6792 ;	sound.c 623
                           6793 ; genLabel
   15B3                    6794 00117$:
                           6795 ; genAssign
                           6796 ; AOP_HL for _soundReg
   15B3 21 0E 00           6797 	ld	hl,#_soundReg + 0
   15B6 4E                 6798 	ld	c,(hl)
   15B7 23                 6799 	inc	hl
   15B8 46                 6800 	ld	b,(hl)
                           6801 ; genPlus
                           6802 ; genPlusIncr
                           6803 ;	genPlusIncr failed
   15B9 79                 6804 	ld	a,c
   15BA C6 14              6805 	add	a,#0x14
   15BC 5F                 6806 	ld	e,a
   15BD 78                 6807 	ld	a,b
   15BE CE 00              6808 	adc	a,#0x00
   15C0 57                 6809 	ld	d,a
                           6810 ; genRightShift
                           6811 ; AOP_STK for 
                           6812 ; shift right 	result 2, left 2
   15C1 F8 07              6813 	lda	hl,7(sp)
   15C3 4E                 6814 	ld	c,(hl)
   15C4 06 00              6815 	ld	b,#0x00
                           6816 ; genAssign (pointer)
   15C6 79                 6817 	ld	a,c
   15C7 12                 6818 	ld	(de),a
   15C8 13                 6819 	inc	de
   15C9 78                 6820 	ld	a,b
   15CA 12                 6821 	ld	(de),a
                           6822 ;	sound.c 624
                           6823 ; genAssign
                           6824 ; AOP_HL for _soundReg
   15CB 21 0E 00           6825 	ld	hl,#_soundReg + 0
   15CE 4E                 6826 	ld	c,(hl)
   15CF 23                 6827 	inc	hl
   15D0 46                 6828 	ld	b,(hl)
                           6829 ; genPlus
                           6830 ; genPlusIncr
                           6831 ;	genPlusIncr failed
   15D1 79                 6832 	ld	a,c
   15D2 C6 12              6833 	add	a,#0x12
   15D4 5F                 6834 	ld	e,a
   15D5 78                 6835 	ld	a,b
   15D6 CE 00              6836 	adc	a,#0x00
   15D8 57                 6837 	ld	d,a
                           6838 ; genCast
                           6839 ; AOP_STK for 
   15D9 F8 06              6840 	lda	hl,6(sp)
   15DB 4E                 6841 	ld	c,(hl)
                           6842 ; genAnd
                           6843 ; genCast
                           6844 ; Removed redundent load
   15DC 06 00              6845 	ld	b,#0x00
                           6846 ; genAssign (pointer)
   15DE 79                 6847 	ld	a,c
   15DF 12                 6848 	ld	(de),a
   15E0 13                 6849 	inc	de
   15E1 78                 6850 	ld	a,b
   15E2 12                 6851 	ld	(de),a
                           6852 ;	sound.c 625
                           6853 ; genCall
   15E3 CD CE 05           6854 	call	_NR13
                           6855 ; AOP_SFR for _NR13_REG
   15E6 7B                 6856 	ld	a,e
   15E7 E0 00              6857 	ldh	(_NR13_REG+0),a
                           6858 ;	sound.c 626
                           6859 ; genCall
   15E9 CD E5 05           6860 	call	_NR14
                           6861 ; AOP_SFR for _NR14_REG
   15EC 7B                 6862 	ld	a,e
   15ED E0 00              6863 	ldh	(_NR14_REG+0),a
                           6864 ;	sound.c 627
                           6865 ; genGoto
   15EF C3 98 1C           6866 	jp	00176$
                           6867 ;	sound.c 629
                           6868 ; genLabel
   15F2                    6869 00119$:
                           6870 ; genAssign
                           6871 ; AOP_HL for _soundReg
   15F2 21 0E 00           6872 	ld	hl,#_soundReg + 0
   15F5 4E                 6873 	ld	c,(hl)
   15F6 23                 6874 	inc	hl
   15F7 46                 6875 	ld	b,(hl)
                           6876 ; genPlus
                           6877 ; genPlusIncr
                           6878 ;	genPlusIncr failed
   15F8 79                 6879 	ld	a,c
   15F9 C6 18              6880 	add	a,#0x18
   15FB 5F                 6881 	ld	e,a
   15FC 78                 6882 	ld	a,b
   15FD CE 00              6883 	adc	a,#0x00
   15FF 57                 6884 	ld	d,a
                           6885 ; genAssign (pointer)
                           6886 ; AOP_STK for 
   1600 F8 06              6887 	lda	hl,6(sp)
   1602 7E                 6888 	ld	a,(hl)
   1603 12                 6889 	ld	(de),a
   1604 13                 6890 	inc	de
   1605 23                 6891 	inc	hl
   1606 7E                 6892 	ld	a,(hl)
   1607 12                 6893 	ld	(de),a
                           6894 ;	sound.c 630
                           6895 ; genCall
   1608 CD E5 05           6896 	call	_NR14
                           6897 ; AOP_SFR for _NR14_REG
   160B 7B                 6898 	ld	a,e
   160C E0 00              6899 	ldh	(_NR14_REG+0),a
                           6900 ;	sound.c 631
                           6901 ; genGoto
   160E C3 98 1C           6902 	jp	00176$
                           6903 ;	sound.c 633
                           6904 ; genLabel
   1611                    6905 00120$:
                           6906 ; genAssign
                           6907 ; AOP_HL for _soundReg
   1611 21 0E 00           6908 	ld	hl,#_soundReg + 0
   1614 4E                 6909 	ld	c,(hl)
   1615 23                 6910 	inc	hl
   1616 46                 6911 	ld	b,(hl)
                           6912 ; genPlus
                           6913 ; genPlusIncr
                           6914 ;	genPlusIncr failed
   1617 79                 6915 	ld	a,c
   1618 C6 68              6916 	add	a,#0x68
   161A 5F                 6917 	ld	e,a
   161B 78                 6918 	ld	a,b
   161C CE 00              6919 	adc	a,#0x00
   161E 57                 6920 	ld	d,a
                           6921 ; genAssign (pointer)
                           6922 ; AOP_STK for 
   161F F8 06              6923 	lda	hl,6(sp)
   1621 7E                 6924 	ld	a,(hl)
   1622 12                 6925 	ld	(de),a
   1623 13                 6926 	inc	de
   1624 23                 6927 	inc	hl
   1625 7E                 6928 	ld	a,(hl)
   1626 12                 6929 	ld	(de),a
                           6930 ;	sound.c 634
                           6931 ; genCall
   1627 CD 46 0A           6932 	call	_NR51
                           6933 ; AOP_SFR for _NR51_REG
   162A 7B                 6934 	ld	a,e
   162B E0 00              6935 	ldh	(_NR51_REG+0),a
                           6936 ;	sound.c 635
                           6937 ; genGoto
   162D C3 98 1C           6938 	jp	00176$
                           6939 ;	sound.c 637
                           6940 ; genLabel
   1630                    6941 00121$:
                           6942 ; genAssign
                           6943 ; AOP_HL for _soundReg
   1630 21 0E 00           6944 	ld	hl,#_soundReg + 0
   1633 4E                 6945 	ld	c,(hl)
   1634 23                 6946 	inc	hl
   1635 46                 6947 	ld	b,(hl)
                           6948 ; genPlus
                           6949 ; genPlusIncr
                           6950 ;	genPlusIncr failed
   1636 79                 6951 	ld	a,c
   1637 C6 70              6952 	add	a,#0x70
   1639 5F                 6953 	ld	e,a
   163A 78                 6954 	ld	a,b
   163B CE 00              6955 	adc	a,#0x00
   163D 57                 6956 	ld	d,a
                           6957 ; genAssign (pointer)
                           6958 ; AOP_STK for 
   163E F8 06              6959 	lda	hl,6(sp)
   1640 7E                 6960 	ld	a,(hl)
   1641 12                 6961 	ld	(de),a
   1642 13                 6962 	inc	de
   1643 23                 6963 	inc	hl
   1644 7E                 6964 	ld	a,(hl)
   1645 12                 6965 	ld	(de),a
                           6966 ;	sound.c 638
                           6967 ; genCall
   1646 CD 46 0A           6968 	call	_NR51
                           6969 ; AOP_SFR for _NR51_REG
   1649 7B                 6970 	ld	a,e
   164A E0 00              6971 	ldh	(_NR51_REG+0),a
                           6972 ;	sound.c 639
                           6973 ; genGoto
   164C C3 98 1C           6974 	jp	00176$
                           6975 ;	sound.c 641
                           6976 ; genLabel
   164F                    6977 00122$:
                           6978 ; genAssign
                           6979 ; AOP_HL for _soundReg
   164F 21 0E 00           6980 	ld	hl,#_soundReg + 0
   1652 4E                 6981 	ld	c,(hl)
   1653 23                 6982 	inc	hl
   1654 46                 6983 	ld	b,(hl)
                           6984 ; genPlus
                           6985 ; genPlusIncr
                           6986 ;	genPlusIncr failed
   1655 79                 6987 	ld	a,c
   1656 C6 78              6988 	add	a,#0x78
   1658 5F                 6989 	ld	e,a
   1659 78                 6990 	ld	a,b
   165A CE 00              6991 	adc	a,#0x00
   165C 57                 6992 	ld	d,a
                           6993 ; genAssign (pointer)
                           6994 ; AOP_STK for 
   165D F8 06              6995 	lda	hl,6(sp)
   165F 7E                 6996 	ld	a,(hl)
   1660 12                 6997 	ld	(de),a
   1661 13                 6998 	inc	de
   1662 23                 6999 	inc	hl
   1663 7E                 7000 	ld	a,(hl)
   1664 12                 7001 	ld	(de),a
                           7002 ;	sound.c 642
                           7003 ; genCall
   1665 CD 6F 0B           7004 	call	_NR52
                           7005 ; AOP_SFR for _NR52_REG
   1668 7B                 7006 	ld	a,e
   1669 E0 00              7007 	ldh	(_NR52_REG+0),a
                           7008 ;	sound.c 643
                           7009 ; genGoto
   166B C3 98 1C           7010 	jp	00176$
                           7011 ;	sound.c 645
                           7012 ; genLabel
   166E                    7013 00123$:
                           7014 ; genIpush
   166E 3E 21              7015 	ld	a,#0x21
   1670 F5                 7016 	push	af
   1671 33                 7017 	inc	sp
                           7018 ; genIpush
                           7019 ; AOP_STK for 
   1672 F8 05              7020 	lda	hl,5(sp)
   1674 7E                 7021 	ld	a,(hl)
   1675 F5                 7022 	push	af
   1676 33                 7023 	inc	sp
                           7024 ; genCall
   1677 CD 92 0B           7025 	call	_current_value
   167A 42                 7026 	ld	b,d
   167B 4B                 7027 	ld	c,e
   167C E8 02              7028 	lda	sp,2(sp)
                           7029 ; genIpush
   167E C5                 7030 	push	bc
                           7031 ; genIpush
   167F 3E 21              7032 	ld	a,#0x21
   1681 F5                 7033 	push	af
   1682 33                 7034 	inc	sp
                           7035 ; genIpush
                           7036 ; AOP_STK for 
   1683 F8 07              7037 	lda	hl,7(sp)
   1685 7E                 7038 	ld	a,(hl)
   1686 F5                 7039 	push	af
   1687 33                 7040 	inc	sp
                           7041 ; genCall
   1688 CD 0A 12           7042 	call	_update_value
   168B E8 04              7043 	lda	sp,4(sp)
                           7044 ;	sound.c 646
                           7045 ; genAssign
                           7046 ; AOP_HL for _soundReg
   168D 21 0E 00           7047 	ld	hl,#_soundReg + 0
   1690 4E                 7048 	ld	c,(hl)
   1691 23                 7049 	inc	hl
   1692 46                 7050 	ld	b,(hl)
                           7051 ; genPlus
                           7052 ; genPlusIncr
                           7053 ;	genPlusIncr failed
   1693 79                 7054 	ld	a,c
   1694 C6 1A              7055 	add	a,#0x1A
   1696 5F                 7056 	ld	e,a
   1697 78                 7057 	ld	a,b
   1698 CE 00              7058 	adc	a,#0x00
   169A 57                 7059 	ld	d,a
                           7060 ; genAssign (pointer)
                           7061 ; AOP_STK for 
   169B F8 06              7062 	lda	hl,6(sp)
   169D 7E                 7063 	ld	a,(hl)
   169E 12                 7064 	ld	(de),a
   169F 13                 7065 	inc	de
   16A0 23                 7066 	inc	hl
   16A1 7E                 7067 	ld	a,(hl)
   16A2 12                 7068 	ld	(de),a
                           7069 ;	sound.c 647
                           7070 ; genCall
   16A3 CD E5 05           7071 	call	_NR14
                           7072 ; AOP_SFR for _NR14_REG
   16A6 7B                 7073 	ld	a,e
   16A7 E0 00              7074 	ldh	(_NR14_REG+0),a
                           7075 ;	sound.c 648
                           7076 ; genAssign
                           7077 ; AOP_HL for _soundReg
   16A9 21 0E 00           7078 	ld	hl,#_soundReg + 0
   16AC 4E                 7079 	ld	c,(hl)
   16AD 23                 7080 	inc	hl
   16AE 46                 7081 	ld	b,(hl)
                           7082 ; genPlus
                           7083 ; genPlusIncr
                           7084 ;	genPlusIncr failed
   16AF 79                 7085 	ld	a,c
   16B0 C6 1A              7086 	add	a,#0x1A
   16B2 5F                 7087 	ld	e,a
   16B3 78                 7088 	ld	a,b
   16B4 CE 00              7089 	adc	a,#0x00
   16B6 57                 7090 	ld	d,a
                           7091 ; genAssign (pointer)
   16B7 3E 00              7092 	ld	a,#0x00
   16B9 12                 7093 	ld	(de),a
   16BA 13                 7094 	inc	de
   16BB 3E 00              7095 	ld	a,#0x00
   16BD 12                 7096 	ld	(de),a
                           7097 ;	sound.c 650
                           7098 ; genGoto
   16BE C3 98 1C           7099 	jp	00176$
                           7100 ; genLabel
   16C1                    7101 00171$:
                           7102 ;	sound.c 651
                           7103 ; genCmpEq
                           7104 ; AOP_STK for 
   16C1 F8 04              7105 	lda	hl,4(sp)
   16C3 7E                 7106 	ld	a,(hl) ; 2
   16C4 FE 02              7107 	cp	a,#0x02
   16C6 C2 CB 16           7108 	jp	nz,00265$
   16C9 18 03              7109 	jr	00266$
   16CB                    7110 00265$:
   16CB C3 D9 18           7111 	jp	00168$
   16CE                    7112 00266$:
                           7113 ;	sound.c 652
                           7114 ; genCmpEq
                           7115 ; AOP_STK for 
   16CE F8 05              7116 	lda	hl,5(sp)
   16D0 7E                 7117 	ld	a,(hl)
   16D1 B7                 7118 	or	a,a
                           7119 ; Rule 5
   16D2 CA 30 17           7120 	jp	z,00125$
   16D5                    7121 00267$:
                           7122 ; genCmpEq
                           7123 ; AOP_STK for 
   16D5 F8 05              7124 	lda	hl,5(sp)
   16D7 7E                 7125 	ld	a,(hl) ; 2
   16D8 FE 01              7126 	cp	a,#0x01
                           7127 ; Rule 5
   16DA CA 4F 17           7128 	jp	z,00126$
   16DD                    7129 00268$:
                           7130 ; genCmpEq
                           7131 ; AOP_STK for 
   16DD F8 05              7132 	lda	hl,5(sp)
   16DF 7E                 7133 	ld	a,(hl) ; 2
   16E0 FE 02              7134 	cp	a,#0x02
                           7135 ; Rule 5
   16E2 CA 6E 17           7136 	jp	z,00127$
   16E5                    7137 00269$:
                           7138 ; genCmpEq
                           7139 ; AOP_STK for 
   16E5 F8 05              7140 	lda	hl,5(sp)
   16E7 7E                 7141 	ld	a,(hl) ; 2
   16E8 FE 03              7142 	cp	a,#0x03
                           7143 ; Rule 5
   16EA CA 8D 17           7144 	jp	z,00128$
   16ED                    7145 00270$:
                           7146 ; genCmpEq
                           7147 ; AOP_STK for 
   16ED F8 05              7148 	lda	hl,5(sp)
   16EF 7E                 7149 	ld	a,(hl) ; 2
   16F0 FE 04              7150 	cp	a,#0x04
                           7151 ; Rule 5
   16F2 CA AC 17           7152 	jp	z,00129$
   16F5                    7153 00271$:
                           7154 ; genCmpEq
                           7155 ; AOP_STK for 
   16F5 F8 05              7156 	lda	hl,5(sp)
   16F7 7E                 7157 	ld	a,(hl) ; 2
   16F8 FE 05              7158 	cp	a,#0x05
                           7159 ; Rule 5
   16FA CA CB 17           7160 	jp	z,00130$
   16FD                    7161 00272$:
                           7162 ; genCmpEq
                           7163 ; AOP_STK for 
   16FD F8 05              7164 	lda	hl,5(sp)
   16FF 7E                 7165 	ld	a,(hl) ; 2
   1700 FE 06              7166 	cp	a,#0x06
                           7167 ; Rule 5
   1702 CA 0A 18           7168 	jp	z,00132$
   1705                    7169 00273$:
                           7170 ; genCmpEq
                           7171 ; AOP_STK for 
   1705 F8 05              7172 	lda	hl,5(sp)
   1707 7E                 7173 	ld	a,(hl) ; 2
   1708 FE 07              7174 	cp	a,#0x07
                           7175 ; Rule 5
   170A CA 29 18           7176 	jp	z,00133$
   170D                    7177 00274$:
                           7178 ; genCmpEq
                           7179 ; AOP_STK for 
   170D F8 05              7180 	lda	hl,5(sp)
   170F 7E                 7181 	ld	a,(hl) ; 2
   1710 FE 08              7182 	cp	a,#0x08
                           7183 ; Rule 5
   1712 CA 48 18           7184 	jp	z,00134$
   1715                    7185 00275$:
                           7186 ; genCmpEq
                           7187 ; AOP_STK for 
   1715 F8 05              7188 	lda	hl,5(sp)
   1717 7E                 7189 	ld	a,(hl) ; 2
   1718 FE 09              7190 	cp	a,#0x09
                           7191 ; Rule 5
   171A CA 67 18           7192 	jp	z,00135$
   171D                    7193 00276$:
                           7194 ; genCmpEq
                           7195 ; AOP_STK for 
   171D F8 05              7196 	lda	hl,5(sp)
   171F 7E                 7197 	ld	a,(hl) ; 2
   1720 FE 20              7198 	cp	a,#0x20
                           7199 ; Rule 5
   1722 CA 86 18           7200 	jp	z,00136$
   1725                    7201 00277$:
                           7202 ; genCmpEq
                           7203 ; AOP_STK for 
   1725 F8 05              7204 	lda	hl,5(sp)
   1727 7E                 7205 	ld	a,(hl) ; 2
   1728 FE 21              7206 	cp	a,#0x21
                           7207 ; Rule 5
   172A CA CB 17           7208 	jp	z,00130$
   172D                    7209 00278$:
                           7210 ; genGoto
   172D C3 98 1C           7211 	jp	00176$
                           7212 ;	sound.c 655
                           7213 ; genLabel
   1730                    7214 00125$:
                           7215 ; genAssign
                           7216 ; AOP_HL for _soundReg
   1730 21 0E 00           7217 	ld	hl,#_soundReg + 0
   1733 4E                 7218 	ld	c,(hl)
   1734 23                 7219 	inc	hl
   1735 46                 7220 	ld	b,(hl)
                           7221 ; genPlus
                           7222 ; genPlusIncr
                           7223 ;	genPlusIncr failed
   1736 79                 7224 	ld	a,c
   1737 C6 20              7225 	add	a,#0x20
   1739 5F                 7226 	ld	e,a
   173A 78                 7227 	ld	a,b
   173B CE 00              7228 	adc	a,#0x00
   173D 57                 7229 	ld	d,a
                           7230 ; genAssign (pointer)
                           7231 ; AOP_STK for 
   173E F8 06              7232 	lda	hl,6(sp)
   1740 7E                 7233 	ld	a,(hl)
   1741 12                 7234 	ld	(de),a
   1742 13                 7235 	inc	de
   1743 23                 7236 	inc	hl
   1744 7E                 7237 	ld	a,(hl)
   1745 12                 7238 	ld	(de),a
                           7239 ;	sound.c 656
                           7240 ; genCall
   1746 CD 52 06           7241 	call	_NR21
                           7242 ; AOP_SFR for _NR21_REG
   1749 7B                 7243 	ld	a,e
   174A E0 00              7244 	ldh	(_NR21_REG+0),a
                           7245 ;	sound.c 657
                           7246 ; genGoto
   174C C3 98 1C           7247 	jp	00176$
                           7248 ;	sound.c 659
                           7249 ; genLabel
   174F                    7250 00126$:
                           7251 ; genAssign
                           7252 ; AOP_HL for _soundReg
   174F 21 0E 00           7253 	ld	hl,#_soundReg + 0
   1752 4E                 7254 	ld	c,(hl)
   1753 23                 7255 	inc	hl
   1754 46                 7256 	ld	b,(hl)
                           7257 ; genPlus
                           7258 ; genPlusIncr
                           7259 ;	genPlusIncr failed
   1755 79                 7260 	ld	a,c
   1756 C6 1E              7261 	add	a,#0x1E
   1758 5F                 7262 	ld	e,a
   1759 78                 7263 	ld	a,b
   175A CE 00              7264 	adc	a,#0x00
   175C 57                 7265 	ld	d,a
                           7266 ; genAssign (pointer)
                           7267 ; AOP_STK for 
   175D F8 06              7268 	lda	hl,6(sp)
   175F 7E                 7269 	ld	a,(hl)
   1760 12                 7270 	ld	(de),a
   1761 13                 7271 	inc	de
   1762 23                 7272 	inc	hl
   1763 7E                 7273 	ld	a,(hl)
   1764 12                 7274 	ld	(de),a
                           7275 ;	sound.c 660
                           7276 ; genCall
   1765 CD 52 06           7277 	call	_NR21
                           7278 ; AOP_SFR for _NR21_REG
   1768 7B                 7279 	ld	a,e
   1769 E0 00              7280 	ldh	(_NR21_REG+0),a
                           7281 ;	sound.c 661
                           7282 ; genGoto
   176B C3 98 1C           7283 	jp	00176$
                           7284 ;	sound.c 663
                           7285 ; genLabel
   176E                    7286 00127$:
                           7287 ; genAssign
                           7288 ; AOP_HL for _soundReg
   176E 21 0E 00           7289 	ld	hl,#_soundReg + 0
   1771 4E                 7290 	ld	c,(hl)
   1772 23                 7291 	inc	hl
   1773 46                 7292 	ld	b,(hl)
                           7293 ; genPlus
                           7294 ; genPlusIncr
                           7295 ;	genPlusIncr failed
   1774 79                 7296 	ld	a,c
   1775 C6 26              7297 	add	a,#0x26
   1777 5F                 7298 	ld	e,a
   1778 78                 7299 	ld	a,b
   1779 CE 00              7300 	adc	a,#0x00
   177B 57                 7301 	ld	d,a
                           7302 ; genAssign (pointer)
                           7303 ; AOP_STK for 
   177C F8 06              7304 	lda	hl,6(sp)
   177E 7E                 7305 	ld	a,(hl)
   177F 12                 7306 	ld	(de),a
   1780 13                 7307 	inc	de
   1781 23                 7308 	inc	hl
   1782 7E                 7309 	ld	a,(hl)
   1783 12                 7310 	ld	(de),a
                           7311 ;	sound.c 664
                           7312 ; genCall
   1784 CD 98 06           7313 	call	_NR22
                           7314 ; AOP_SFR for _NR22_REG
   1787 7B                 7315 	ld	a,e
   1788 E0 00              7316 	ldh	(_NR22_REG+0),a
                           7317 ;	sound.c 665
                           7318 ; genGoto
   178A C3 98 1C           7319 	jp	00176$
                           7320 ;	sound.c 667
                           7321 ; genLabel
   178D                    7322 00128$:
                           7323 ; genAssign
                           7324 ; AOP_HL for _soundReg
   178D 21 0E 00           7325 	ld	hl,#_soundReg + 0
   1790 4E                 7326 	ld	c,(hl)
   1791 23                 7327 	inc	hl
   1792 46                 7328 	ld	b,(hl)
                           7329 ; genPlus
                           7330 ; genPlusIncr
                           7331 ;	genPlusIncr failed
   1793 79                 7332 	ld	a,c
   1794 C6 24              7333 	add	a,#0x24
   1796 5F                 7334 	ld	e,a
   1797 78                 7335 	ld	a,b
   1798 CE 00              7336 	adc	a,#0x00
   179A 57                 7337 	ld	d,a
                           7338 ; genAssign (pointer)
                           7339 ; AOP_STK for 
   179B F8 06              7340 	lda	hl,6(sp)
   179D 7E                 7341 	ld	a,(hl)
   179E 12                 7342 	ld	(de),a
   179F 13                 7343 	inc	de
   17A0 23                 7344 	inc	hl
   17A1 7E                 7345 	ld	a,(hl)
   17A2 12                 7346 	ld	(de),a
                           7347 ;	sound.c 668
                           7348 ; genCall
   17A3 CD 98 06           7349 	call	_NR22
                           7350 ; AOP_SFR for _NR22_REG
   17A6 7B                 7351 	ld	a,e
   17A7 E0 00              7352 	ldh	(_NR22_REG+0),a
                           7353 ;	sound.c 669
                           7354 ; genGoto
   17A9 C3 98 1C           7355 	jp	00176$
                           7356 ;	sound.c 671
                           7357 ; genLabel
   17AC                    7358 00129$:
                           7359 ; genAssign
                           7360 ; AOP_HL for _soundReg
   17AC 21 0E 00           7361 	ld	hl,#_soundReg + 0
   17AF 4E                 7362 	ld	c,(hl)
   17B0 23                 7363 	inc	hl
   17B1 46                 7364 	ld	b,(hl)
                           7365 ; genPlus
                           7366 ; genPlusIncr
                           7367 ;	genPlusIncr failed
   17B2 79                 7368 	ld	a,c
   17B3 C6 22              7369 	add	a,#0x22
   17B5 5F                 7370 	ld	e,a
   17B6 78                 7371 	ld	a,b
   17B7 CE 00              7372 	adc	a,#0x00
   17B9 57                 7373 	ld	d,a
                           7374 ; genAssign (pointer)
                           7375 ; AOP_STK for 
   17BA F8 06              7376 	lda	hl,6(sp)
   17BC 7E                 7377 	ld	a,(hl)
   17BD 12                 7378 	ld	(de),a
   17BE 13                 7379 	inc	de
   17BF 23                 7380 	inc	hl
   17C0 7E                 7381 	ld	a,(hl)
   17C1 12                 7382 	ld	(de),a
                           7383 ;	sound.c 672
                           7384 ; genCall
   17C2 CD 98 06           7385 	call	_NR22
                           7386 ; AOP_SFR for _NR22_REG
   17C5 7B                 7387 	ld	a,e
   17C6 E0 00              7388 	ldh	(_NR22_REG+0),a
                           7389 ;	sound.c 673
                           7390 ; genGoto
   17C8 C3 98 1C           7391 	jp	00176$
                           7392 ;	sound.c 676
                           7393 ; genLabel
   17CB                    7394 00130$:
                           7395 ; genAssign
                           7396 ; AOP_HL for _soundReg
   17CB 21 0E 00           7397 	ld	hl,#_soundReg + 0
   17CE 4E                 7398 	ld	c,(hl)
   17CF 23                 7399 	inc	hl
   17D0 46                 7400 	ld	b,(hl)
                           7401 ; genPlus
                           7402 ; genPlusIncr
                           7403 ;	genPlusIncr failed
   17D1 79                 7404 	ld	a,c
   17D2 C6 2A              7405 	add	a,#0x2A
   17D4 5F                 7406 	ld	e,a
   17D5 78                 7407 	ld	a,b
   17D6 CE 00              7408 	adc	a,#0x00
   17D8 57                 7409 	ld	d,a
                           7410 ; genRightShift
                           7411 ; AOP_STK for 
                           7412 ; shift right 	result 2, left 2
   17D9 F8 07              7413 	lda	hl,7(sp)
   17DB 4E                 7414 	ld	c,(hl)
   17DC 06 00              7415 	ld	b,#0x00
                           7416 ; genAssign (pointer)
   17DE 79                 7417 	ld	a,c
   17DF 12                 7418 	ld	(de),a
   17E0 13                 7419 	inc	de
   17E1 78                 7420 	ld	a,b
   17E2 12                 7421 	ld	(de),a
                           7422 ;	sound.c 677
                           7423 ; genAssign
                           7424 ; AOP_HL for _soundReg
   17E3 21 0E 00           7425 	ld	hl,#_soundReg + 0
   17E6 4E                 7426 	ld	c,(hl)
   17E7 23                 7427 	inc	hl
   17E8 46                 7428 	ld	b,(hl)
                           7429 ; genPlus
                           7430 ; genPlusIncr
                           7431 ;	genPlusIncr failed
   17E9 79                 7432 	ld	a,c
   17EA C6 28              7433 	add	a,#0x28
   17EC 5F                 7434 	ld	e,a
   17ED 78                 7435 	ld	a,b
   17EE CE 00              7436 	adc	a,#0x00
   17F0 57                 7437 	ld	d,a
                           7438 ; genCast
                           7439 ; AOP_STK for 
   17F1 F8 06              7440 	lda	hl,6(sp)
   17F3 4E                 7441 	ld	c,(hl)
                           7442 ; genAnd
                           7443 ; genCast
                           7444 ; Removed redundent load
   17F4 06 00              7445 	ld	b,#0x00
                           7446 ; genAssign (pointer)
   17F6 79                 7447 	ld	a,c
   17F7 12                 7448 	ld	(de),a
   17F8 13                 7449 	inc	de
   17F9 78                 7450 	ld	a,b
   17FA 12                 7451 	ld	(de),a
                           7452 ;	sound.c 678
                           7453 ; genCall
   17FB CD 05 07           7454 	call	_NR23
                           7455 ; AOP_SFR for _NR23_REG
   17FE 7B                 7456 	ld	a,e
   17FF E0 00              7457 	ldh	(_NR23_REG+0),a
                           7458 ;	sound.c 679
                           7459 ; genCall
   1801 CD 1C 07           7460 	call	_NR24
                           7461 ; AOP_SFR for _NR24_REG
   1804 7B                 7462 	ld	a,e
   1805 E0 00              7463 	ldh	(_NR24_REG+0),a
                           7464 ;	sound.c 680
                           7465 ; genGoto
   1807 C3 98 1C           7466 	jp	00176$
                           7467 ;	sound.c 682
                           7468 ; genLabel
   180A                    7469 00132$:
                           7470 ; genAssign
                           7471 ; AOP_HL for _soundReg
   180A 21 0E 00           7472 	ld	hl,#_soundReg + 0
   180D 4E                 7473 	ld	c,(hl)
   180E 23                 7474 	inc	hl
   180F 46                 7475 	ld	b,(hl)
                           7476 ; genPlus
                           7477 ; genPlusIncr
                           7478 ;	genPlusIncr failed
   1810 79                 7479 	ld	a,c
   1811 C6 2E              7480 	add	a,#0x2E
   1813 5F                 7481 	ld	e,a
   1814 78                 7482 	ld	a,b
   1815 CE 00              7483 	adc	a,#0x00
   1817 57                 7484 	ld	d,a
                           7485 ; genAssign (pointer)
                           7486 ; AOP_STK for 
   1818 F8 06              7487 	lda	hl,6(sp)
   181A 7E                 7488 	ld	a,(hl)
   181B 12                 7489 	ld	(de),a
   181C 13                 7490 	inc	de
   181D 23                 7491 	inc	hl
   181E 7E                 7492 	ld	a,(hl)
   181F 12                 7493 	ld	(de),a
                           7494 ;	sound.c 683
                           7495 ; genCall
   1820 CD 1C 07           7496 	call	_NR24
                           7497 ; AOP_SFR for _NR24_REG
   1823 7B                 7498 	ld	a,e
   1824 E0 00              7499 	ldh	(_NR24_REG+0),a
                           7500 ;	sound.c 684
                           7501 ; genGoto
   1826 C3 98 1C           7502 	jp	00176$
                           7503 ;	sound.c 686
                           7504 ; genLabel
   1829                    7505 00133$:
                           7506 ; genAssign
                           7507 ; AOP_HL for _soundReg
   1829 21 0E 00           7508 	ld	hl,#_soundReg + 0
   182C 4E                 7509 	ld	c,(hl)
   182D 23                 7510 	inc	hl
   182E 46                 7511 	ld	b,(hl)
                           7512 ; genPlus
                           7513 ; genPlusIncr
                           7514 ;	genPlusIncr failed
   182F 79                 7515 	ld	a,c
   1830 C6 6A              7516 	add	a,#0x6A
   1832 5F                 7517 	ld	e,a
   1833 78                 7518 	ld	a,b
   1834 CE 00              7519 	adc	a,#0x00
   1836 57                 7520 	ld	d,a
                           7521 ; genAssign (pointer)
                           7522 ; AOP_STK for 
   1837 F8 06              7523 	lda	hl,6(sp)
   1839 7E                 7524 	ld	a,(hl)
   183A 12                 7525 	ld	(de),a
   183B 13                 7526 	inc	de
   183C 23                 7527 	inc	hl
   183D 7E                 7528 	ld	a,(hl)
   183E 12                 7529 	ld	(de),a
                           7530 ;	sound.c 687
                           7531 ; genCall
   183F CD 46 0A           7532 	call	_NR51
                           7533 ; AOP_SFR for _NR51_REG
   1842 7B                 7534 	ld	a,e
   1843 E0 00              7535 	ldh	(_NR51_REG+0),a
                           7536 ;	sound.c 688
                           7537 ; genGoto
   1845 C3 98 1C           7538 	jp	00176$
                           7539 ;	sound.c 690
                           7540 ; genLabel
   1848                    7541 00134$:
                           7542 ; genAssign
                           7543 ; AOP_HL for _soundReg
   1848 21 0E 00           7544 	ld	hl,#_soundReg + 0
   184B 4E                 7545 	ld	c,(hl)
   184C 23                 7546 	inc	hl
   184D 46                 7547 	ld	b,(hl)
                           7548 ; genPlus
                           7549 ; genPlusIncr
                           7550 ;	genPlusIncr failed
   184E 79                 7551 	ld	a,c
   184F C6 72              7552 	add	a,#0x72
   1851 5F                 7553 	ld	e,a
   1852 78                 7554 	ld	a,b
   1853 CE 00              7555 	adc	a,#0x00
   1855 57                 7556 	ld	d,a
                           7557 ; genAssign (pointer)
                           7558 ; AOP_STK for 
   1856 F8 06              7559 	lda	hl,6(sp)
   1858 7E                 7560 	ld	a,(hl)
   1859 12                 7561 	ld	(de),a
   185A 13                 7562 	inc	de
   185B 23                 7563 	inc	hl
   185C 7E                 7564 	ld	a,(hl)
   185D 12                 7565 	ld	(de),a
                           7566 ;	sound.c 691
                           7567 ; genCall
   185E CD 46 0A           7568 	call	_NR51
                           7569 ; AOP_SFR for _NR51_REG
   1861 7B                 7570 	ld	a,e
   1862 E0 00              7571 	ldh	(_NR51_REG+0),a
                           7572 ;	sound.c 692
                           7573 ; genGoto
   1864 C3 98 1C           7574 	jp	00176$
                           7575 ;	sound.c 694
                           7576 ; genLabel
   1867                    7577 00135$:
                           7578 ; genAssign
                           7579 ; AOP_HL for _soundReg
   1867 21 0E 00           7580 	ld	hl,#_soundReg + 0
   186A 4E                 7581 	ld	c,(hl)
   186B 23                 7582 	inc	hl
   186C 46                 7583 	ld	b,(hl)
                           7584 ; genPlus
                           7585 ; genPlusIncr
                           7586 ;	genPlusIncr failed
   186D 79                 7587 	ld	a,c
   186E C6 7A              7588 	add	a,#0x7A
   1870 5F                 7589 	ld	e,a
   1871 78                 7590 	ld	a,b
   1872 CE 00              7591 	adc	a,#0x00
   1874 57                 7592 	ld	d,a
                           7593 ; genAssign (pointer)
                           7594 ; AOP_STK for 
   1875 F8 06              7595 	lda	hl,6(sp)
   1877 7E                 7596 	ld	a,(hl)
   1878 12                 7597 	ld	(de),a
   1879 13                 7598 	inc	de
   187A 23                 7599 	inc	hl
   187B 7E                 7600 	ld	a,(hl)
   187C 12                 7601 	ld	(de),a
                           7602 ;	sound.c 695
                           7603 ; genCall
   187D CD 6F 0B           7604 	call	_NR52
                           7605 ; AOP_SFR for _NR52_REG
   1880 7B                 7606 	ld	a,e
   1881 E0 00              7607 	ldh	(_NR52_REG+0),a
                           7608 ;	sound.c 696
                           7609 ; genGoto
   1883 C3 98 1C           7610 	jp	00176$
                           7611 ;	sound.c 698
                           7612 ; genLabel
   1886                    7613 00136$:
                           7614 ; genIpush
   1886 3E 21              7615 	ld	a,#0x21
   1888 F5                 7616 	push	af
   1889 33                 7617 	inc	sp
                           7618 ; genIpush
                           7619 ; AOP_STK for 
   188A F8 05              7620 	lda	hl,5(sp)
   188C 7E                 7621 	ld	a,(hl)
   188D F5                 7622 	push	af
   188E 33                 7623 	inc	sp
                           7624 ; genCall
   188F CD 92 0B           7625 	call	_current_value
   1892 42                 7626 	ld	b,d
   1893 4B                 7627 	ld	c,e
   1894 E8 02              7628 	lda	sp,2(sp)
                           7629 ; genIpush
   1896 C5                 7630 	push	bc
                           7631 ; genIpush
   1897 3E 21              7632 	ld	a,#0x21
   1899 F5                 7633 	push	af
   189A 33                 7634 	inc	sp
                           7635 ; genIpush
                           7636 ; AOP_STK for 
   189B F8 07              7637 	lda	hl,7(sp)
   189D 7E                 7638 	ld	a,(hl)
   189E F5                 7639 	push	af
   189F 33                 7640 	inc	sp
                           7641 ; genCall
   18A0 CD 0A 12           7642 	call	_update_value
   18A3 E8 04              7643 	lda	sp,4(sp)
                           7644 ;	sound.c 699
                           7645 ; genAssign
                           7646 ; AOP_HL for _soundReg
   18A5 21 0E 00           7647 	ld	hl,#_soundReg + 0
   18A8 4E                 7648 	ld	c,(hl)
   18A9 23                 7649 	inc	hl
   18AA 46                 7650 	ld	b,(hl)
                           7651 ; genPlus
                           7652 ; genPlusIncr
                           7653 ;	genPlusIncr failed
   18AB 79                 7654 	ld	a,c
   18AC C6 30              7655 	add	a,#0x30
   18AE 5F                 7656 	ld	e,a
   18AF 78                 7657 	ld	a,b
   18B0 CE 00              7658 	adc	a,#0x00
   18B2 57                 7659 	ld	d,a
                           7660 ; genAssign (pointer)
                           7661 ; AOP_STK for 
   18B3 F8 06              7662 	lda	hl,6(sp)
   18B5 7E                 7663 	ld	a,(hl)
   18B6 12                 7664 	ld	(de),a
   18B7 13                 7665 	inc	de
   18B8 23                 7666 	inc	hl
   18B9 7E                 7667 	ld	a,(hl)
   18BA 12                 7668 	ld	(de),a
                           7669 ;	sound.c 700
                           7670 ; genCall
   18BB CD 1C 07           7671 	call	_NR24
                           7672 ; AOP_SFR for _NR24_REG
   18BE 7B                 7673 	ld	a,e
   18BF E0 00              7674 	ldh	(_NR24_REG+0),a
                           7675 ;	sound.c 701
                           7676 ; genAssign
                           7677 ; AOP_HL for _soundReg
   18C1 21 0E 00           7678 	ld	hl,#_soundReg + 0
   18C4 4E                 7679 	ld	c,(hl)
   18C5 23                 7680 	inc	hl
   18C6 46                 7681 	ld	b,(hl)
                           7682 ; genPlus
                           7683 ; genPlusIncr
                           7684 ;	genPlusIncr failed
   18C7 79                 7685 	ld	a,c
   18C8 C6 30              7686 	add	a,#0x30
   18CA 5F                 7687 	ld	e,a
   18CB 78                 7688 	ld	a,b
   18CC CE 00              7689 	adc	a,#0x00
   18CE 57                 7690 	ld	d,a
                           7691 ; genAssign (pointer)
   18CF 3E 00              7692 	ld	a,#0x00
   18D1 12                 7693 	ld	(de),a
   18D2 13                 7694 	inc	de
   18D3 3E 00              7695 	ld	a,#0x00
   18D5 12                 7696 	ld	(de),a
                           7697 ;	sound.c 703
                           7698 ; genGoto
   18D6 C3 98 1C           7699 	jp	00176$
                           7700 ; genLabel
   18D9                    7701 00168$:
                           7702 ;	sound.c 704
                           7703 ; genCmpEq
                           7704 ; AOP_STK for 
   18D9 F8 04              7705 	lda	hl,4(sp)
   18DB 7E                 7706 	ld	a,(hl) ; 2
   18DC FE 03              7707 	cp	a,#0x03
   18DE C2 E3 18           7708 	jp	nz,00279$
   18E1 18 03              7709 	jr	00280$
   18E3                    7710 00279$:
   18E3 C3 A3 1A           7711 	jp	00165$
   18E6                    7712 00280$:
                           7713 ;	sound.c 705
                           7714 ; genCmpEq
                           7715 ; AOP_STK for 
   18E6 F8 05              7716 	lda	hl,5(sp)
   18E8 7E                 7717 	ld	a,(hl)
   18E9 B7                 7718 	or	a,a
                           7719 ; Rule 5
   18EA CA 38 19           7720 	jp	z,00138$
   18ED                    7721 00281$:
                           7722 ; genCmpEq
                           7723 ; AOP_STK for 
   18ED F8 05              7724 	lda	hl,5(sp)
   18EF 7E                 7725 	ld	a,(hl) ; 2
   18F0 FE 01              7726 	cp	a,#0x01
                           7727 ; Rule 5
   18F2 CA 57 19           7728 	jp	z,00139$
   18F5                    7729 00282$:
                           7730 ; genCmpEq
                           7731 ; AOP_STK for 
   18F5 F8 05              7732 	lda	hl,5(sp)
   18F7 7E                 7733 	ld	a,(hl) ; 2
   18F8 FE 02              7734 	cp	a,#0x02
                           7735 ; Rule 5
   18FA CA 76 19           7736 	jp	z,00140$
   18FD                    7737 00283$:
                           7738 ; genCmpEq
                           7739 ; AOP_STK for 
   18FD F8 05              7740 	lda	hl,5(sp)
   18FF 7E                 7741 	ld	a,(hl) ; 2
   1900 FE 03              7742 	cp	a,#0x03
                           7743 ; Rule 5
   1902 CA 95 19           7744 	jp	z,00141$
   1905                    7745 00284$:
                           7746 ; genCmpEq
                           7747 ; AOP_STK for 
   1905 F8 05              7748 	lda	hl,5(sp)
   1907 7E                 7749 	ld	a,(hl) ; 2
   1908 FE 04              7750 	cp	a,#0x04
                           7751 ; Rule 5
   190A CA D4 19           7752 	jp	z,00143$
   190D                    7753 00285$:
                           7754 ; genCmpEq
                           7755 ; AOP_STK for 
   190D F8 05              7756 	lda	hl,5(sp)
   190F 7E                 7757 	ld	a,(hl) ; 2
   1910 FE 05              7758 	cp	a,#0x05
                           7759 ; Rule 5
   1912 CA F3 19           7760 	jp	z,00144$
   1915                    7761 00286$:
                           7762 ; genCmpEq
                           7763 ; AOP_STK for 
   1915 F8 05              7764 	lda	hl,5(sp)
   1917 7E                 7765 	ld	a,(hl) ; 2
   1918 FE 06              7766 	cp	a,#0x06
                           7767 ; Rule 5
   191A CA 12 1A           7768 	jp	z,00145$
   191D                    7769 00287$:
                           7770 ; genCmpEq
                           7771 ; AOP_STK for 
   191D F8 05              7772 	lda	hl,5(sp)
   191F 7E                 7773 	ld	a,(hl) ; 2
   1920 FE 07              7774 	cp	a,#0x07
                           7775 ; Rule 5
   1922 CA 31 1A           7776 	jp	z,00146$
   1925                    7777 00288$:
                           7778 ; genCmpEq
                           7779 ; AOP_STK for 
   1925 F8 05              7780 	lda	hl,5(sp)
   1927 7E                 7781 	ld	a,(hl) ; 2
   1928 FE 20              7782 	cp	a,#0x20
                           7783 ; Rule 5
   192A CA 50 1A           7784 	jp	z,00147$
   192D                    7785 00289$:
                           7786 ; genCmpEq
                           7787 ; AOP_STK for 
   192D F8 05              7788 	lda	hl,5(sp)
   192F 7E                 7789 	ld	a,(hl) ; 2
   1930 FE 21              7790 	cp	a,#0x21
                           7791 ; Rule 5
   1932 CA 95 19           7792 	jp	z,00141$
   1935                    7793 00290$:
                           7794 ; genGoto
   1935 C3 98 1C           7795 	jp	00176$
                           7796 ;	sound.c 708
                           7797 ; genLabel
   1938                    7798 00138$:
                           7799 ; genAssign
                           7800 ; AOP_HL for _soundReg
   1938 21 0E 00           7801 	ld	hl,#_soundReg + 0
   193B 4E                 7802 	ld	c,(hl)
   193C 23                 7803 	inc	hl
   193D 46                 7804 	ld	b,(hl)
                           7805 ; genPlus
                           7806 ; genPlusIncr
                           7807 ;	genPlusIncr failed
   193E 79                 7808 	ld	a,c
   193F C6 34              7809 	add	a,#0x34
   1941 5F                 7810 	ld	e,a
   1942 78                 7811 	ld	a,b
   1943 CE 00              7812 	adc	a,#0x00
   1945 57                 7813 	ld	d,a
                           7814 ; genAssign (pointer)
                           7815 ; AOP_STK for 
   1946 F8 06              7816 	lda	hl,6(sp)
   1948 7E                 7817 	ld	a,(hl)
   1949 12                 7818 	ld	(de),a
   194A 13                 7819 	inc	de
   194B 23                 7820 	inc	hl
   194C 7E                 7821 	ld	a,(hl)
   194D 12                 7822 	ld	(de),a
                           7823 ;	sound.c 709
                           7824 ; genCall
   194E CD 89 07           7825 	call	_NR30
                           7826 ; AOP_SFR for _NR30_REG
   1951 7B                 7827 	ld	a,e
   1952 E0 00              7828 	ldh	(_NR30_REG+0),a
                           7829 ;	sound.c 710
                           7830 ; genGoto
   1954 C3 98 1C           7831 	jp	00176$
                           7832 ;	sound.c 712
                           7833 ; genLabel
   1957                    7834 00139$:
                           7835 ; genAssign
                           7836 ; AOP_HL for _soundReg
   1957 21 0E 00           7837 	ld	hl,#_soundReg + 0
   195A 4E                 7838 	ld	c,(hl)
   195B 23                 7839 	inc	hl
   195C 46                 7840 	ld	b,(hl)
                           7841 ; genPlus
                           7842 ; genPlusIncr
                           7843 ;	genPlusIncr failed
   195D 79                 7844 	ld	a,c
   195E C6 36              7845 	add	a,#0x36
   1960 5F                 7846 	ld	e,a
   1961 78                 7847 	ld	a,b
   1962 CE 00              7848 	adc	a,#0x00
   1964 57                 7849 	ld	d,a
                           7850 ; genAssign (pointer)
                           7851 ; AOP_STK for 
   1965 F8 06              7852 	lda	hl,6(sp)
   1967 7E                 7853 	ld	a,(hl)
   1968 12                 7854 	ld	(de),a
   1969 13                 7855 	inc	de
   196A 23                 7856 	inc	hl
   196B 7E                 7857 	ld	a,(hl)
   196C 12                 7858 	ld	(de),a
                           7859 ;	sound.c 713
                           7860 ; genCall
   196D CD AC 07           7861 	call	_NR31
                           7862 ; AOP_SFR for _NR31_REG
   1970 7B                 7863 	ld	a,e
   1971 E0 00              7864 	ldh	(_NR31_REG+0),a
                           7865 ;	sound.c 714
                           7866 ; genGoto
   1973 C3 98 1C           7867 	jp	00176$
                           7868 ;	sound.c 716
                           7869 ; genLabel
   1976                    7870 00140$:
                           7871 ; genAssign
                           7872 ; AOP_HL for _soundReg
   1976 21 0E 00           7873 	ld	hl,#_soundReg + 0
   1979 4E                 7874 	ld	c,(hl)
   197A 23                 7875 	inc	hl
   197B 46                 7876 	ld	b,(hl)
                           7877 ; genPlus
                           7878 ; genPlusIncr
                           7879 ;	genPlusIncr failed
   197C 79                 7880 	ld	a,c
   197D C6 3A              7881 	add	a,#0x3A
   197F 5F                 7882 	ld	e,a
   1980 78                 7883 	ld	a,b
   1981 CE 00              7884 	adc	a,#0x00
   1983 57                 7885 	ld	d,a
                           7886 ; genAssign (pointer)
                           7887 ; AOP_STK for 
   1984 F8 06              7888 	lda	hl,6(sp)
   1986 7E                 7889 	ld	a,(hl)
   1987 12                 7890 	ld	(de),a
   1988 13                 7891 	inc	de
   1989 23                 7892 	inc	hl
   198A 7E                 7893 	ld	a,(hl)
   198B 12                 7894 	ld	(de),a
                           7895 ;	sound.c 717
                           7896 ; genCall
   198C CD C3 07           7897 	call	_NR32
                           7898 ; AOP_SFR for _NR32_REG
   198F 7B                 7899 	ld	a,e
   1990 E0 00              7900 	ldh	(_NR32_REG+0),a
                           7901 ;	sound.c 718
                           7902 ; genGoto
   1992 C3 98 1C           7903 	jp	00176$
                           7904 ;	sound.c 721
                           7905 ; genLabel
   1995                    7906 00141$:
                           7907 ; genAssign
                           7908 ; AOP_HL for _soundReg
   1995 21 0E 00           7909 	ld	hl,#_soundReg + 0
   1998 4E                 7910 	ld	c,(hl)
   1999 23                 7911 	inc	hl
   199A 46                 7912 	ld	b,(hl)
                           7913 ; genPlus
                           7914 ; genPlusIncr
                           7915 ;	genPlusIncr failed
   199B 79                 7916 	ld	a,c
   199C C6 40              7917 	add	a,#0x40
   199E 5F                 7918 	ld	e,a
   199F 78                 7919 	ld	a,b
   19A0 CE 00              7920 	adc	a,#0x00
   19A2 57                 7921 	ld	d,a
                           7922 ; genRightShift
                           7923 ; AOP_STK for 
                           7924 ; shift right 	result 2, left 2
   19A3 F8 07              7925 	lda	hl,7(sp)
   19A5 4E                 7926 	ld	c,(hl)
   19A6 06 00              7927 	ld	b,#0x00
                           7928 ; genAssign (pointer)
   19A8 79                 7929 	ld	a,c
   19A9 12                 7930 	ld	(de),a
   19AA 13                 7931 	inc	de
   19AB 78                 7932 	ld	a,b
   19AC 12                 7933 	ld	(de),a
                           7934 ;	sound.c 722
                           7935 ; genAssign
                           7936 ; AOP_HL for _soundReg
   19AD 21 0E 00           7937 	ld	hl,#_soundReg + 0
   19B0 4E                 7938 	ld	c,(hl)
   19B1 23                 7939 	inc	hl
   19B2 46                 7940 	ld	b,(hl)
                           7941 ; genPlus
                           7942 ; genPlusIncr
                           7943 ;	genPlusIncr failed
   19B3 79                 7944 	ld	a,c
   19B4 C6 3E              7945 	add	a,#0x3E
   19B6 5F                 7946 	ld	e,a
   19B7 78                 7947 	ld	a,b
   19B8 CE 00              7948 	adc	a,#0x00
   19BA 57                 7949 	ld	d,a
                           7950 ; genCast
                           7951 ; AOP_STK for 
   19BB F8 06              7952 	lda	hl,6(sp)
   19BD 4E                 7953 	ld	c,(hl)
                           7954 ; genAnd
                           7955 ; genCast
                           7956 ; Removed redundent load
   19BE 06 00              7957 	ld	b,#0x00
                           7958 ; genAssign (pointer)
   19C0 79                 7959 	ld	a,c
   19C1 12                 7960 	ld	(de),a
   19C2 13                 7961 	inc	de
   19C3 78                 7962 	ld	a,b
   19C4 12                 7963 	ld	(de),a
                           7964 ;	sound.c 723
                           7965 ; genCall
   19C5 CD E6 07           7966 	call	_NR33
                           7967 ; AOP_SFR for _NR33_REG
   19C8 7B                 7968 	ld	a,e
   19C9 E0 00              7969 	ldh	(_NR33_REG+0),a
                           7970 ;	sound.c 724
                           7971 ; genCall
   19CB CD FD 07           7972 	call	_NR34
                           7973 ; AOP_SFR for _NR34_REG
   19CE 7B                 7974 	ld	a,e
   19CF E0 00              7975 	ldh	(_NR34_REG+0),a
                           7976 ;	sound.c 725
                           7977 ; genGoto
   19D1 C3 98 1C           7978 	jp	00176$
                           7979 ;	sound.c 727
                           7980 ; genLabel
   19D4                    7981 00143$:
                           7982 ; genAssign
                           7983 ; AOP_HL for _soundReg
   19D4 21 0E 00           7984 	ld	hl,#_soundReg + 0
   19D7 4E                 7985 	ld	c,(hl)
   19D8 23                 7986 	inc	hl
   19D9 46                 7987 	ld	b,(hl)
                           7988 ; genPlus
                           7989 ; genPlusIncr
                           7990 ;	genPlusIncr failed
   19DA 79                 7991 	ld	a,c
   19DB C6 44              7992 	add	a,#0x44
   19DD 5F                 7993 	ld	e,a
   19DE 78                 7994 	ld	a,b
   19DF CE 00              7995 	adc	a,#0x00
   19E1 57                 7996 	ld	d,a
                           7997 ; genAssign (pointer)
                           7998 ; AOP_STK for 
   19E2 F8 06              7999 	lda	hl,6(sp)
   19E4 7E                 8000 	ld	a,(hl)
   19E5 12                 8001 	ld	(de),a
   19E6 13                 8002 	inc	de
   19E7 23                 8003 	inc	hl
   19E8 7E                 8004 	ld	a,(hl)
   19E9 12                 8005 	ld	(de),a
                           8006 ;	sound.c 728
                           8007 ; genCall
   19EA CD FD 07           8008 	call	_NR34
                           8009 ; AOP_SFR for _NR34_REG
   19ED 7B                 8010 	ld	a,e
   19EE E0 00              8011 	ldh	(_NR34_REG+0),a
                           8012 ;	sound.c 729
                           8013 ; genGoto
   19F0 C3 98 1C           8014 	jp	00176$
                           8015 ;	sound.c 731
                           8016 ; genLabel
   19F3                    8017 00144$:
                           8018 ; genAssign
                           8019 ; AOP_HL for _soundReg
   19F3 21 0E 00           8020 	ld	hl,#_soundReg + 0
   19F6 4E                 8021 	ld	c,(hl)
   19F7 23                 8022 	inc	hl
   19F8 46                 8023 	ld	b,(hl)
                           8024 ; genPlus
                           8025 ; genPlusIncr
                           8026 ;	genPlusIncr failed
   19F9 79                 8027 	ld	a,c
   19FA C6 6C              8028 	add	a,#0x6C
   19FC 5F                 8029 	ld	e,a
   19FD 78                 8030 	ld	a,b
   19FE CE 00              8031 	adc	a,#0x00
   1A00 57                 8032 	ld	d,a
                           8033 ; genAssign (pointer)
                           8034 ; AOP_STK for 
   1A01 F8 06              8035 	lda	hl,6(sp)
   1A03 7E                 8036 	ld	a,(hl)
   1A04 12                 8037 	ld	(de),a
   1A05 13                 8038 	inc	de
   1A06 23                 8039 	inc	hl
   1A07 7E                 8040 	ld	a,(hl)
   1A08 12                 8041 	ld	(de),a
                           8042 ;	sound.c 732
                           8043 ; genCall
   1A09 CD 46 0A           8044 	call	_NR51
                           8045 ; AOP_SFR for _NR51_REG
   1A0C 7B                 8046 	ld	a,e
   1A0D E0 00              8047 	ldh	(_NR51_REG+0),a
                           8048 ;	sound.c 733
                           8049 ; genGoto
   1A0F C3 98 1C           8050 	jp	00176$
                           8051 ;	sound.c 735
                           8052 ; genLabel
   1A12                    8053 00145$:
                           8054 ; genAssign
                           8055 ; AOP_HL for _soundReg
   1A12 21 0E 00           8056 	ld	hl,#_soundReg + 0
   1A15 4E                 8057 	ld	c,(hl)
   1A16 23                 8058 	inc	hl
   1A17 46                 8059 	ld	b,(hl)
                           8060 ; genPlus
                           8061 ; genPlusIncr
                           8062 ;	genPlusIncr failed
   1A18 79                 8063 	ld	a,c
   1A19 C6 74              8064 	add	a,#0x74
   1A1B 5F                 8065 	ld	e,a
   1A1C 78                 8066 	ld	a,b
   1A1D CE 00              8067 	adc	a,#0x00
   1A1F 57                 8068 	ld	d,a
                           8069 ; genAssign (pointer)
                           8070 ; AOP_STK for 
   1A20 F8 06              8071 	lda	hl,6(sp)
   1A22 7E                 8072 	ld	a,(hl)
   1A23 12                 8073 	ld	(de),a
   1A24 13                 8074 	inc	de
   1A25 23                 8075 	inc	hl
   1A26 7E                 8076 	ld	a,(hl)
   1A27 12                 8077 	ld	(de),a
                           8078 ;	sound.c 736
                           8079 ; genCall
   1A28 CD 46 0A           8080 	call	_NR51
                           8081 ; AOP_SFR for _NR51_REG
   1A2B 7B                 8082 	ld	a,e
   1A2C E0 00              8083 	ldh	(_NR51_REG+0),a
                           8084 ;	sound.c 737
                           8085 ; genGoto
   1A2E C3 98 1C           8086 	jp	00176$
                           8087 ;	sound.c 739
                           8088 ; genLabel
   1A31                    8089 00146$:
                           8090 ; genAssign
                           8091 ; AOP_HL for _soundReg
   1A31 21 0E 00           8092 	ld	hl,#_soundReg + 0
   1A34 4E                 8093 	ld	c,(hl)
   1A35 23                 8094 	inc	hl
   1A36 46                 8095 	ld	b,(hl)
                           8096 ; genPlus
                           8097 ; genPlusIncr
                           8098 ;	genPlusIncr failed
   1A37 79                 8099 	ld	a,c
   1A38 C6 7C              8100 	add	a,#0x7C
   1A3A 5F                 8101 	ld	e,a
   1A3B 78                 8102 	ld	a,b
   1A3C CE 00              8103 	adc	a,#0x00
   1A3E 57                 8104 	ld	d,a
                           8105 ; genAssign (pointer)
                           8106 ; AOP_STK for 
   1A3F F8 06              8107 	lda	hl,6(sp)
   1A41 7E                 8108 	ld	a,(hl)
   1A42 12                 8109 	ld	(de),a
   1A43 13                 8110 	inc	de
   1A44 23                 8111 	inc	hl
   1A45 7E                 8112 	ld	a,(hl)
   1A46 12                 8113 	ld	(de),a
                           8114 ;	sound.c 740
                           8115 ; genCall
   1A47 CD 6F 0B           8116 	call	_NR52
                           8117 ; AOP_SFR for _NR52_REG
   1A4A 7B                 8118 	ld	a,e
   1A4B E0 00              8119 	ldh	(_NR52_REG+0),a
                           8120 ;	sound.c 741
                           8121 ; genGoto
   1A4D C3 98 1C           8122 	jp	00176$
                           8123 ;	sound.c 743
                           8124 ; genLabel
   1A50                    8125 00147$:
                           8126 ; genIpush
   1A50 3E 21              8127 	ld	a,#0x21
   1A52 F5                 8128 	push	af
   1A53 33                 8129 	inc	sp
                           8130 ; genIpush
                           8131 ; AOP_STK for 
   1A54 F8 05              8132 	lda	hl,5(sp)
   1A56 7E                 8133 	ld	a,(hl)
   1A57 F5                 8134 	push	af
   1A58 33                 8135 	inc	sp
                           8136 ; genCall
   1A59 CD 92 0B           8137 	call	_current_value
   1A5C 42                 8138 	ld	b,d
   1A5D 4B                 8139 	ld	c,e
   1A5E E8 02              8140 	lda	sp,2(sp)
                           8141 ; genIpush
   1A60 C5                 8142 	push	bc
                           8143 ; genIpush
   1A61 3E 21              8144 	ld	a,#0x21
   1A63 F5                 8145 	push	af
   1A64 33                 8146 	inc	sp
                           8147 ; genIpush
                           8148 ; AOP_STK for 
   1A65 F8 07              8149 	lda	hl,7(sp)
   1A67 7E                 8150 	ld	a,(hl)
   1A68 F5                 8151 	push	af
   1A69 33                 8152 	inc	sp
                           8153 ; genCall
   1A6A CD 0A 12           8154 	call	_update_value
   1A6D E8 04              8155 	lda	sp,4(sp)
                           8156 ;	sound.c 744
                           8157 ; genAssign
                           8158 ; AOP_HL for _soundReg
   1A6F 21 0E 00           8159 	ld	hl,#_soundReg + 0
   1A72 4E                 8160 	ld	c,(hl)
   1A73 23                 8161 	inc	hl
   1A74 46                 8162 	ld	b,(hl)
                           8163 ; genPlus
                           8164 ; genPlusIncr
                           8165 ;	genPlusIncr failed
   1A75 79                 8166 	ld	a,c
   1A76 C6 46              8167 	add	a,#0x46
   1A78 5F                 8168 	ld	e,a
   1A79 78                 8169 	ld	a,b
   1A7A CE 00              8170 	adc	a,#0x00
   1A7C 57                 8171 	ld	d,a
                           8172 ; genAssign (pointer)
                           8173 ; AOP_STK for 
   1A7D F8 06              8174 	lda	hl,6(sp)
   1A7F 7E                 8175 	ld	a,(hl)
   1A80 12                 8176 	ld	(de),a
   1A81 13                 8177 	inc	de
   1A82 23                 8178 	inc	hl
   1A83 7E                 8179 	ld	a,(hl)
   1A84 12                 8180 	ld	(de),a
                           8181 ;	sound.c 745
                           8182 ; genCall
   1A85 CD FD 07           8183 	call	_NR34
                           8184 ; AOP_SFR for _NR34_REG
   1A88 7B                 8185 	ld	a,e
   1A89 E0 00              8186 	ldh	(_NR34_REG+0),a
                           8187 ;	sound.c 746
                           8188 ; genAssign
                           8189 ; AOP_HL for _soundReg
   1A8B 21 0E 00           8190 	ld	hl,#_soundReg + 0
   1A8E 4E                 8191 	ld	c,(hl)
   1A8F 23                 8192 	inc	hl
   1A90 46                 8193 	ld	b,(hl)
                           8194 ; genPlus
                           8195 ; genPlusIncr
                           8196 ;	genPlusIncr failed
   1A91 79                 8197 	ld	a,c
   1A92 C6 46              8198 	add	a,#0x46
   1A94 5F                 8199 	ld	e,a
   1A95 78                 8200 	ld	a,b
   1A96 CE 00              8201 	adc	a,#0x00
   1A98 57                 8202 	ld	d,a
                           8203 ; genAssign (pointer)
   1A99 3E 00              8204 	ld	a,#0x00
   1A9B 12                 8205 	ld	(de),a
   1A9C 13                 8206 	inc	de
   1A9D 3E 00              8207 	ld	a,#0x00
   1A9F 12                 8208 	ld	(de),a
                           8209 ;	sound.c 748
                           8210 ; genGoto
   1AA0 C3 98 1C           8211 	jp	00176$
                           8212 ; genLabel
   1AA3                    8213 00165$:
                           8214 ;	sound.c 749
                           8215 ; genCmpEq
                           8216 ; AOP_STK for 
   1AA3 F8 04              8217 	lda	hl,4(sp)
   1AA5 7E                 8218 	ld	a,(hl) ; 2
   1AA6 FE 04              8219 	cp	a,#0x04
   1AA8 C2 AD 1A           8220 	jp	nz,00291$
   1AAB 18 03              8221 	jr	00292$
   1AAD                    8222 00291$:
   1AAD C3 98 1C           8223 	jp	00176$
   1AB0                    8224 00292$:
                           8225 ;	sound.c 750
                           8226 ; genCmpEq
                           8227 ; AOP_STK for 
   1AB0 F8 05              8228 	lda	hl,5(sp)
   1AB2 7E                 8229 	ld	a,(hl)
   1AB3 B7                 8230 	or	a,a
                           8231 ; Rule 5
   1AB4 CA 12 1B           8232 	jp	z,00149$
   1AB7                    8233 00293$:
                           8234 ; genCmpEq
                           8235 ; AOP_STK for 
   1AB7 F8 05              8236 	lda	hl,5(sp)
   1AB9 7E                 8237 	ld	a,(hl) ; 2
   1ABA FE 01              8238 	cp	a,#0x01
                           8239 ; Rule 5
   1ABC CA 31 1B           8240 	jp	z,00150$
   1ABF                    8241 00294$:
                           8242 ; genCmpEq
                           8243 ; AOP_STK for 
   1ABF F8 05              8244 	lda	hl,5(sp)
   1AC1 7E                 8245 	ld	a,(hl) ; 2
   1AC2 FE 02              8246 	cp	a,#0x02
                           8247 ; Rule 5
   1AC4 CA 50 1B           8248 	jp	z,00151$
   1AC7                    8249 00295$:
                           8250 ; genCmpEq
                           8251 ; AOP_STK for 
   1AC7 F8 05              8252 	lda	hl,5(sp)
   1AC9 7E                 8253 	ld	a,(hl) ; 2
   1ACA FE 03              8254 	cp	a,#0x03
                           8255 ; Rule 5
   1ACC CA 6F 1B           8256 	jp	z,00152$
   1ACF                    8257 00296$:
                           8258 ; genCmpEq
                           8259 ; AOP_STK for 
   1ACF F8 05              8260 	lda	hl,5(sp)
   1AD1 7E                 8261 	ld	a,(hl) ; 2
   1AD2 FE 04              8262 	cp	a,#0x04
                           8263 ; Rule 5
   1AD4 CA 8E 1B           8264 	jp	z,00153$
   1AD7                    8265 00297$:
                           8266 ; genCmpEq
                           8267 ; AOP_STK for 
   1AD7 F8 05              8268 	lda	hl,5(sp)
   1AD9 7E                 8269 	ld	a,(hl) ; 2
   1ADA FE 05              8270 	cp	a,#0x05
                           8271 ; Rule 5
   1ADC CA AD 1B           8272 	jp	z,00154$
   1ADF                    8273 00298$:
                           8274 ; genCmpEq
                           8275 ; AOP_STK for 
   1ADF F8 05              8276 	lda	hl,5(sp)
   1AE1 7E                 8277 	ld	a,(hl) ; 2
   1AE2 FE 06              8278 	cp	a,#0x06
                           8279 ; Rule 5
   1AE4 CA CC 1B           8280 	jp	z,00155$
   1AE7                    8281 00299$:
                           8282 ; genCmpEq
                           8283 ; AOP_STK for 
   1AE7 F8 05              8284 	lda	hl,5(sp)
   1AE9 7E                 8285 	ld	a,(hl) ; 2
   1AEA FE 07              8286 	cp	a,#0x07
                           8287 ; Rule 5
   1AEC CA EB 1B           8288 	jp	z,00156$
   1AEF                    8289 00300$:
                           8290 ; genCmpEq
                           8291 ; AOP_STK for 
   1AEF F8 05              8292 	lda	hl,5(sp)
   1AF1 7E                 8293 	ld	a,(hl) ; 2
   1AF2 FE 08              8294 	cp	a,#0x08
                           8295 ; Rule 5
   1AF4 CA 0A 1C           8296 	jp	z,00157$
   1AF7                    8297 00301$:
                           8298 ; genCmpEq
                           8299 ; AOP_STK for 
   1AF7 F8 05              8300 	lda	hl,5(sp)
   1AF9 7E                 8301 	ld	a,(hl) ; 2
   1AFA FE 09              8302 	cp	a,#0x09
                           8303 ; Rule 5
   1AFC CA 29 1C           8304 	jp	z,00158$
   1AFF                    8305 00302$:
                           8306 ; genCmpEq
                           8307 ; AOP_STK for 
   1AFF F8 05              8308 	lda	hl,5(sp)
   1B01 7E                 8309 	ld	a,(hl) ; 2
   1B02 FE 0A              8310 	cp	a,#0x0A
                           8311 ; Rule 5
   1B04 CA 48 1C           8312 	jp	z,00159$
   1B07                    8313 00303$:
                           8314 ; genCmpEq
                           8315 ; AOP_STK for 
   1B07 F8 05              8316 	lda	hl,5(sp)
   1B09 7E                 8317 	ld	a,(hl) ; 2
   1B0A FE 20              8318 	cp	a,#0x20
                           8319 ; Rule 5
   1B0C CA 67 1C           8320 	jp	z,00160$
   1B0F                    8321 00304$:
                           8322 ; genGoto
   1B0F C3 98 1C           8323 	jp	00176$
                           8324 ;	sound.c 753
                           8325 ; genLabel
   1B12                    8326 00149$:
                           8327 ; genAssign
                           8328 ; AOP_HL for _soundReg
   1B12 21 0E 00           8329 	ld	hl,#_soundReg + 0
   1B15 4E                 8330 	ld	c,(hl)
   1B16 23                 8331 	inc	hl
   1B17 46                 8332 	ld	b,(hl)
                           8333 ; genPlus
                           8334 ; genPlusIncr
                           8335 ;	genPlusIncr failed
   1B18 79                 8336 	ld	a,c
   1B19 C6 4A              8337 	add	a,#0x4A
   1B1B 5F                 8338 	ld	e,a
   1B1C 78                 8339 	ld	a,b
   1B1D CE 00              8340 	adc	a,#0x00
   1B1F 57                 8341 	ld	d,a
                           8342 ; genAssign (pointer)
                           8343 ; AOP_STK for 
   1B20 F8 06              8344 	lda	hl,6(sp)
   1B22 7E                 8345 	ld	a,(hl)
   1B23 12                 8346 	ld	(de),a
   1B24 13                 8347 	inc	de
   1B25 23                 8348 	inc	hl
   1B26 7E                 8349 	ld	a,(hl)
   1B27 12                 8350 	ld	(de),a
                           8351 ;	sound.c 754
                           8352 ; genCall
   1B28 CD 6A 08           8353 	call	_NR41
                           8354 ; AOP_SFR for _NR41_REG
   1B2B 7B                 8355 	ld	a,e
   1B2C E0 00              8356 	ldh	(_NR41_REG+0),a
                           8357 ;	sound.c 755
                           8358 ; genGoto
   1B2E C3 98 1C           8359 	jp	00176$
                           8360 ;	sound.c 757
                           8361 ; genLabel
   1B31                    8362 00150$:
                           8363 ; genAssign
                           8364 ; AOP_HL for _soundReg
   1B31 21 0E 00           8365 	ld	hl,#_soundReg + 0
   1B34 4E                 8366 	ld	c,(hl)
   1B35 23                 8367 	inc	hl
   1B36 46                 8368 	ld	b,(hl)
                           8369 ; genPlus
                           8370 ; genPlusIncr
                           8371 ;	genPlusIncr failed
   1B37 79                 8372 	ld	a,c
   1B38 C6 52              8373 	add	a,#0x52
   1B3A 5F                 8374 	ld	e,a
   1B3B 78                 8375 	ld	a,b
   1B3C CE 00              8376 	adc	a,#0x00
   1B3E 57                 8377 	ld	d,a
                           8378 ; genAssign (pointer)
                           8379 ; AOP_STK for 
   1B3F F8 06              8380 	lda	hl,6(sp)
   1B41 7E                 8381 	ld	a,(hl)
   1B42 12                 8382 	ld	(de),a
   1B43 13                 8383 	inc	de
   1B44 23                 8384 	inc	hl
   1B45 7E                 8385 	ld	a,(hl)
   1B46 12                 8386 	ld	(de),a
                           8387 ;	sound.c 758
                           8388 ; genCall
   1B47 CD 81 08           8389 	call	_NR42
                           8390 ; AOP_SFR for _NR42_REG
   1B4A 7B                 8391 	ld	a,e
   1B4B E0 00              8392 	ldh	(_NR42_REG+0),a
                           8393 ;	sound.c 759
                           8394 ; genGoto
   1B4D C3 98 1C           8395 	jp	00176$
                           8396 ;	sound.c 761
                           8397 ; genLabel
   1B50                    8398 00151$:
                           8399 ; genAssign
                           8400 ; AOP_HL for _soundReg
   1B50 21 0E 00           8401 	ld	hl,#_soundReg + 0
   1B53 4E                 8402 	ld	c,(hl)
   1B54 23                 8403 	inc	hl
   1B55 46                 8404 	ld	b,(hl)
                           8405 ; genPlus
                           8406 ; genPlusIncr
                           8407 ;	genPlusIncr failed
   1B56 79                 8408 	ld	a,c
   1B57 C6 50              8409 	add	a,#0x50
   1B59 5F                 8410 	ld	e,a
   1B5A 78                 8411 	ld	a,b
   1B5B CE 00              8412 	adc	a,#0x00
   1B5D 57                 8413 	ld	d,a
                           8414 ; genAssign (pointer)
                           8415 ; AOP_STK for 
   1B5E F8 06              8416 	lda	hl,6(sp)
   1B60 7E                 8417 	ld	a,(hl)
   1B61 12                 8418 	ld	(de),a
   1B62 13                 8419 	inc	de
   1B63 23                 8420 	inc	hl
   1B64 7E                 8421 	ld	a,(hl)
   1B65 12                 8422 	ld	(de),a
                           8423 ;	sound.c 762
                           8424 ; genCall
   1B66 CD 81 08           8425 	call	_NR42
                           8426 ; AOP_SFR for _NR42_REG
   1B69 7B                 8427 	ld	a,e
   1B6A E0 00              8428 	ldh	(_NR42_REG+0),a
                           8429 ;	sound.c 763
                           8430 ; genGoto
   1B6C C3 98 1C           8431 	jp	00176$
                           8432 ;	sound.c 765
                           8433 ; genLabel
   1B6F                    8434 00152$:
                           8435 ; genAssign
                           8436 ; AOP_HL for _soundReg
   1B6F 21 0E 00           8437 	ld	hl,#_soundReg + 0
   1B72 4E                 8438 	ld	c,(hl)
   1B73 23                 8439 	inc	hl
   1B74 46                 8440 	ld	b,(hl)
                           8441 ; genPlus
                           8442 ; genPlusIncr
                           8443 ;	genPlusIncr failed
   1B75 79                 8444 	ld	a,c
   1B76 C6 4E              8445 	add	a,#0x4E
   1B78 5F                 8446 	ld	e,a
   1B79 78                 8447 	ld	a,b
   1B7A CE 00              8448 	adc	a,#0x00
   1B7C 57                 8449 	ld	d,a
                           8450 ; genAssign (pointer)
                           8451 ; AOP_STK for 
   1B7D F8 06              8452 	lda	hl,6(sp)
   1B7F 7E                 8453 	ld	a,(hl)
   1B80 12                 8454 	ld	(de),a
   1B81 13                 8455 	inc	de
   1B82 23                 8456 	inc	hl
   1B83 7E                 8457 	ld	a,(hl)
   1B84 12                 8458 	ld	(de),a
                           8459 ;	sound.c 766
                           8460 ; genCall
   1B85 CD 81 08           8461 	call	_NR42
                           8462 ; AOP_SFR for _NR42_REG
   1B88 7B                 8463 	ld	a,e
   1B89 E0 00              8464 	ldh	(_NR42_REG+0),a
                           8465 ;	sound.c 767
                           8466 ; genGoto
   1B8B C3 98 1C           8467 	jp	00176$
                           8468 ;	sound.c 769
                           8469 ; genLabel
   1B8E                    8470 00153$:
                           8471 ; genAssign
                           8472 ; AOP_HL for _soundReg
   1B8E 21 0E 00           8473 	ld	hl,#_soundReg + 0
   1B91 4E                 8474 	ld	c,(hl)
   1B92 23                 8475 	inc	hl
   1B93 46                 8476 	ld	b,(hl)
                           8477 ; genPlus
                           8478 ; genPlusIncr
                           8479 ;	genPlusIncr failed
   1B94 79                 8480 	ld	a,c
   1B95 C6 58              8481 	add	a,#0x58
   1B97 5F                 8482 	ld	e,a
   1B98 78                 8483 	ld	a,b
   1B99 CE 00              8484 	adc	a,#0x00
   1B9B 57                 8485 	ld	d,a
                           8486 ; genAssign (pointer)
                           8487 ; AOP_STK for 
   1B9C F8 06              8488 	lda	hl,6(sp)
   1B9E 7E                 8489 	ld	a,(hl)
   1B9F 12                 8490 	ld	(de),a
   1BA0 13                 8491 	inc	de
   1BA1 23                 8492 	inc	hl
   1BA2 7E                 8493 	ld	a,(hl)
   1BA3 12                 8494 	ld	(de),a
                           8495 ;	sound.c 770
                           8496 ; genCall
   1BA4 CD EE 08           8497 	call	_NR43
                           8498 ; AOP_SFR for _NR43_REG
   1BA7 7B                 8499 	ld	a,e
   1BA8 E0 00              8500 	ldh	(_NR43_REG+0),a
                           8501 ;	sound.c 771
                           8502 ; genGoto
   1BAA C3 98 1C           8503 	jp	00176$
                           8504 ;	sound.c 773
                           8505 ; genLabel
   1BAD                    8506 00154$:
                           8507 ; genAssign
                           8508 ; AOP_HL for _soundReg
   1BAD 21 0E 00           8509 	ld	hl,#_soundReg + 0
   1BB0 4E                 8510 	ld	c,(hl)
   1BB1 23                 8511 	inc	hl
   1BB2 46                 8512 	ld	b,(hl)
                           8513 ; genPlus
                           8514 ; genPlusIncr
                           8515 ;	genPlusIncr failed
   1BB3 79                 8516 	ld	a,c
   1BB4 C6 56              8517 	add	a,#0x56
   1BB6 5F                 8518 	ld	e,a
   1BB7 78                 8519 	ld	a,b
   1BB8 CE 00              8520 	adc	a,#0x00
   1BBA 57                 8521 	ld	d,a
                           8522 ; genAssign (pointer)
                           8523 ; AOP_STK for 
   1BBB F8 06              8524 	lda	hl,6(sp)
   1BBD 7E                 8525 	ld	a,(hl)
   1BBE 12                 8526 	ld	(de),a
   1BBF 13                 8527 	inc	de
   1BC0 23                 8528 	inc	hl
   1BC1 7E                 8529 	ld	a,(hl)
   1BC2 12                 8530 	ld	(de),a
                           8531 ;	sound.c 774
                           8532 ; genCall
   1BC3 CD EE 08           8533 	call	_NR43
                           8534 ; AOP_SFR for _NR43_REG
   1BC6 7B                 8535 	ld	a,e
   1BC7 E0 00              8536 	ldh	(_NR43_REG+0),a
                           8537 ;	sound.c 775
                           8538 ; genGoto
   1BC9 C3 98 1C           8539 	jp	00176$
                           8540 ;	sound.c 777
                           8541 ; genLabel
   1BCC                    8542 00155$:
                           8543 ; genAssign
                           8544 ; AOP_HL for _soundReg
   1BCC 21 0E 00           8545 	ld	hl,#_soundReg + 0
   1BCF 4E                 8546 	ld	c,(hl)
   1BD0 23                 8547 	inc	hl
   1BD1 46                 8548 	ld	b,(hl)
                           8549 ; genPlus
                           8550 ; genPlusIncr
                           8551 ;	genPlusIncr failed
   1BD2 79                 8552 	ld	a,c
   1BD3 C6 54              8553 	add	a,#0x54
   1BD5 5F                 8554 	ld	e,a
   1BD6 78                 8555 	ld	a,b
   1BD7 CE 00              8556 	adc	a,#0x00
   1BD9 57                 8557 	ld	d,a
                           8558 ; genAssign (pointer)
                           8559 ; AOP_STK for 
   1BDA F8 06              8560 	lda	hl,6(sp)
   1BDC 7E                 8561 	ld	a,(hl)
   1BDD 12                 8562 	ld	(de),a
   1BDE 13                 8563 	inc	de
   1BDF 23                 8564 	inc	hl
   1BE0 7E                 8565 	ld	a,(hl)
   1BE1 12                 8566 	ld	(de),a
                           8567 ;	sound.c 778
                           8568 ; genCall
   1BE2 CD EE 08           8569 	call	_NR43
                           8570 ; AOP_SFR for _NR43_REG
   1BE5 7B                 8571 	ld	a,e
   1BE6 E0 00              8572 	ldh	(_NR43_REG+0),a
                           8573 ;	sound.c 779
                           8574 ; genGoto
   1BE8 C3 98 1C           8575 	jp	00176$
                           8576 ;	sound.c 781
                           8577 ; genLabel
   1BEB                    8578 00156$:
                           8579 ; genAssign
                           8580 ; AOP_HL for _soundReg
   1BEB 21 0E 00           8581 	ld	hl,#_soundReg + 0
   1BEE 4E                 8582 	ld	c,(hl)
   1BEF 23                 8583 	inc	hl
   1BF0 46                 8584 	ld	b,(hl)
                           8585 ; genPlus
                           8586 ; genPlusIncr
                           8587 ;	genPlusIncr failed
   1BF1 79                 8588 	ld	a,c
   1BF2 C6 5C              8589 	add	a,#0x5C
   1BF4 5F                 8590 	ld	e,a
   1BF5 78                 8591 	ld	a,b
   1BF6 CE 00              8592 	adc	a,#0x00
   1BF8 57                 8593 	ld	d,a
                           8594 ; genAssign (pointer)
                           8595 ; AOP_STK for 
   1BF9 F8 06              8596 	lda	hl,6(sp)
   1BFB 7E                 8597 	ld	a,(hl)
   1BFC 12                 8598 	ld	(de),a
   1BFD 13                 8599 	inc	de
   1BFE 23                 8600 	inc	hl
   1BFF 7E                 8601 	ld	a,(hl)
   1C00 12                 8602 	ld	(de),a
                           8603 ;	sound.c 782
                           8604 ; genCall
   1C01 CD 5B 09           8605 	call	_NR44
                           8606 ; AOP_SFR for _NR44_REG
   1C04 7B                 8607 	ld	a,e
   1C05 E0 00              8608 	ldh	(_NR44_REG+0),a
                           8609 ;	sound.c 783
                           8610 ; genGoto
   1C07 C3 98 1C           8611 	jp	00176$
                           8612 ;	sound.c 785
                           8613 ; genLabel
   1C0A                    8614 00157$:
                           8615 ; genAssign
                           8616 ; AOP_HL for _soundReg
   1C0A 21 0E 00           8617 	ld	hl,#_soundReg + 0
   1C0D 4E                 8618 	ld	c,(hl)
   1C0E 23                 8619 	inc	hl
   1C0F 46                 8620 	ld	b,(hl)
                           8621 ; genPlus
                           8622 ; genPlusIncr
                           8623 ;	genPlusIncr failed
   1C10 79                 8624 	ld	a,c
   1C11 C6 6E              8625 	add	a,#0x6E
   1C13 5F                 8626 	ld	e,a
   1C14 78                 8627 	ld	a,b
   1C15 CE 00              8628 	adc	a,#0x00
   1C17 57                 8629 	ld	d,a
                           8630 ; genAssign (pointer)
                           8631 ; AOP_STK for 
   1C18 F8 06              8632 	lda	hl,6(sp)
   1C1A 7E                 8633 	ld	a,(hl)
   1C1B 12                 8634 	ld	(de),a
   1C1C 13                 8635 	inc	de
   1C1D 23                 8636 	inc	hl
   1C1E 7E                 8637 	ld	a,(hl)
   1C1F 12                 8638 	ld	(de),a
                           8639 ;	sound.c 786
                           8640 ; genCall
   1C20 CD 46 0A           8641 	call	_NR51
                           8642 ; AOP_SFR for _NR51_REG
   1C23 7B                 8643 	ld	a,e
   1C24 E0 00              8644 	ldh	(_NR51_REG+0),a
                           8645 ;	sound.c 787
                           8646 ; genGoto
   1C26 C3 98 1C           8647 	jp	00176$
                           8648 ;	sound.c 789
                           8649 ; genLabel
   1C29                    8650 00158$:
                           8651 ; genAssign
                           8652 ; AOP_HL for _soundReg
   1C29 21 0E 00           8653 	ld	hl,#_soundReg + 0
   1C2C 4E                 8654 	ld	c,(hl)
   1C2D 23                 8655 	inc	hl
   1C2E 46                 8656 	ld	b,(hl)
                           8657 ; genPlus
                           8658 ; genPlusIncr
                           8659 ;	genPlusIncr failed
   1C2F 79                 8660 	ld	a,c
   1C30 C6 76              8661 	add	a,#0x76
   1C32 5F                 8662 	ld	e,a
   1C33 78                 8663 	ld	a,b
   1C34 CE 00              8664 	adc	a,#0x00
   1C36 57                 8665 	ld	d,a
                           8666 ; genAssign (pointer)
                           8667 ; AOP_STK for 
   1C37 F8 06              8668 	lda	hl,6(sp)
   1C39 7E                 8669 	ld	a,(hl)
   1C3A 12                 8670 	ld	(de),a
   1C3B 13                 8671 	inc	de
   1C3C 23                 8672 	inc	hl
   1C3D 7E                 8673 	ld	a,(hl)
   1C3E 12                 8674 	ld	(de),a
                           8675 ;	sound.c 790
                           8676 ; genCall
   1C3F CD 46 0A           8677 	call	_NR51
                           8678 ; AOP_SFR for _NR51_REG
   1C42 7B                 8679 	ld	a,e
   1C43 E0 00              8680 	ldh	(_NR51_REG+0),a
                           8681 ;	sound.c 791
                           8682 ; genGoto
   1C45 C3 98 1C           8683 	jp	00176$
                           8684 ;	sound.c 793
                           8685 ; genLabel
   1C48                    8686 00159$:
                           8687 ; genAssign
                           8688 ; AOP_HL for _soundReg
   1C48 21 0E 00           8689 	ld	hl,#_soundReg + 0
   1C4B 4E                 8690 	ld	c,(hl)
   1C4C 23                 8691 	inc	hl
   1C4D 46                 8692 	ld	b,(hl)
                           8693 ; genPlus
                           8694 ; genPlusIncr
                           8695 ;	genPlusIncr failed
   1C4E 79                 8696 	ld	a,c
   1C4F C6 7E              8697 	add	a,#0x7E
   1C51 5F                 8698 	ld	e,a
   1C52 78                 8699 	ld	a,b
   1C53 CE 00              8700 	adc	a,#0x00
   1C55 57                 8701 	ld	d,a
                           8702 ; genAssign (pointer)
                           8703 ; AOP_STK for 
   1C56 F8 06              8704 	lda	hl,6(sp)
   1C58 7E                 8705 	ld	a,(hl)
   1C59 12                 8706 	ld	(de),a
   1C5A 13                 8707 	inc	de
   1C5B 23                 8708 	inc	hl
   1C5C 7E                 8709 	ld	a,(hl)
   1C5D 12                 8710 	ld	(de),a
                           8711 ;	sound.c 794
                           8712 ; genCall
   1C5E CD 6F 0B           8713 	call	_NR52
                           8714 ; AOP_SFR for _NR52_REG
   1C61 7B                 8715 	ld	a,e
   1C62 E0 00              8716 	ldh	(_NR52_REG+0),a
                           8717 ;	sound.c 795
                           8718 ; genGoto
   1C64 C3 98 1C           8719 	jp	00176$
                           8720 ;	sound.c 797
                           8721 ; genLabel
   1C67                    8722 00160$:
                           8723 ; genAssign
                           8724 ; AOP_HL for _soundReg
   1C67 21 0E 00           8725 	ld	hl,#_soundReg + 0
   1C6A 4E                 8726 	ld	c,(hl)
   1C6B 23                 8727 	inc	hl
   1C6C 46                 8728 	ld	b,(hl)
                           8729 ; genPlus
                           8730 ; genPlusIncr
                           8731 ;	genPlusIncr failed
   1C6D 79                 8732 	ld	a,c
   1C6E C6 5E              8733 	add	a,#0x5E
   1C70 5F                 8734 	ld	e,a
   1C71 78                 8735 	ld	a,b
   1C72 CE 00              8736 	adc	a,#0x00
   1C74 57                 8737 	ld	d,a
                           8738 ; genAssign (pointer)
                           8739 ; AOP_STK for 
   1C75 F8 06              8740 	lda	hl,6(sp)
   1C77 7E                 8741 	ld	a,(hl)
   1C78 12                 8742 	ld	(de),a
   1C79 13                 8743 	inc	de
   1C7A 23                 8744 	inc	hl
   1C7B 7E                 8745 	ld	a,(hl)
   1C7C 12                 8746 	ld	(de),a
                           8747 ;	sound.c 798
                           8748 ; genCall
   1C7D CD 5B 09           8749 	call	_NR44
                           8750 ; AOP_SFR for _NR44_REG
   1C80 7B                 8751 	ld	a,e
   1C81 E0 00              8752 	ldh	(_NR44_REG+0),a
                           8753 ;	sound.c 799
                           8754 ; genAssign
                           8755 ; AOP_HL for _soundReg
   1C83 21 0E 00           8756 	ld	hl,#_soundReg + 0
   1C86 4E                 8757 	ld	c,(hl)
   1C87 23                 8758 	inc	hl
   1C88 46                 8759 	ld	b,(hl)
                           8760 ; genPlus
                           8761 ; genPlusIncr
                           8762 ;	genPlusIncr failed
   1C89 79                 8763 	ld	a,c
   1C8A C6 5E              8764 	add	a,#0x5E
   1C8C 5F                 8765 	ld	e,a
   1C8D 78                 8766 	ld	a,b
   1C8E CE 00              8767 	adc	a,#0x00
   1C90 57                 8768 	ld	d,a
                           8769 ; genAssign (pointer)
   1C91 3E 00              8770 	ld	a,#0x00
   1C93 12                 8771 	ld	(de),a
   1C94 13                 8772 	inc	de
   1C95 3E 00              8773 	ld	a,#0x00
   1C97 12                 8774 	ld	(de),a
                           8775 ;	sound.c 801
                           8776 ; genLabel
   1C98                    8777 00176$:
                           8778 ; genEndFunction
                           8779 	
   1C98 C1                 8780 	pop	bc
   1C99 C9                 8781 	ret
   1C9A                    8782 ___update_value_end:
                           8783 ;	sound.c 805
                           8784 ; genLabel
                           8785 ; genFunction
                           8786 ;	---------------------------------
                           8787 ; Function draw_screen
                           8788 ; ---------------------------------
   1C9A                    8789 ___draw_screen_start:
   1C9A                    8790 _draw_screen:
   1C9A C5                 8791 	push	bc
   1C9B E8 FC              8792 	lda	sp,-4(sp)
                           8793 ;	sound.c 809
                           8794 ; genCall
   1C9D CD 00 00           8795 	call	_cls
                           8796 ;	sound.c 810
                           8797 ; genIpush
   1CA0 3E 00              8798 	ld	a,#0x00
   1CA2 F5                 8799 	push	af
   1CA3 33                 8800 	inc	sp
                           8801 ; genIpush
   1CA4 3E 01              8802 	ld	a,#0x01
   1CA6 F5                 8803 	push	af
   1CA7 33                 8804 	inc	sp
                           8805 ; genCall
   1CA8 CD 00 00           8806 	call	_gotoxy
   1CAB E8 02              8807 	lda	sp,2(sp)
                           8808 ;	sound.c 811
                           8809 ; genAssign
                           8810 ; AOP_HL for _params
   1CAD 21 0C 00           8811 	ld	hl,#_params + 0
   1CB0 5E                 8812 	ld	e,(hl)
   1CB1 23                 8813 	inc	hl
   1CB2 56                 8814 	ld	d,(hl)
                           8815 ; genPointerGet
                           8816 ; Removed redundent load
                           8817 ; Removed redundent load
   1CB3 1A                 8818 	ld	a,(de)
   1CB4 4F                 8819 	ld	c,a
   1CB5 13                 8820 	inc	de
   1CB6 1A                 8821 	ld	a,(de)
   1CB7 47                 8822 	ld	b,a
                           8823 ; genIpush
   1CB8 C5                 8824 	push	bc
                           8825 ; genCall
   1CB9 CD 39 00           8826 	call	_print
   1CBC E8 02              8827 	lda	sp,2(sp)
                           8828 ;	sound.c 813
                           8829 ; genAssign
                           8830 ; AOP_STK for _draw_screen_i_1_1
   1CBE F8 03              8831 	lda	hl,3(sp)
   1CC0 36 00              8832 	ld	(hl),#0x00
                           8833 ; genLabel
   1CC2                    8834 00101$:
                           8835 ; genPlus
                           8836 ; AOP_STK for _draw_screen_i_1_1
                           8837 ; AOP_STK for _draw_screen_sloc0_1_0
                           8838 ; genPlusIncr
                           8839 ;	genPlusIncr failed
   1CC2 F8 03              8840 	lda	hl,3(sp)
   1CC4 7E                 8841 	ld	a,(hl)
   1CC5 C6 01              8842 	add	a,#0x01
   1CC7 2B                 8843 	dec	hl
   1CC8 77                 8844 	ld	(hl),a
                           8845 ; genLeftShift
                           8846 ; AOP_STK for _draw_screen_sloc0_1_0
   1CC9 7E                 8847 	ld	a,(hl)
   1CCA 87                 8848 	add	a,a
   1CCB 87                 8849 	add	a,a
   1CCC 4F                 8850 	ld	c,a
                           8851 ; genPlus
                           8852 ; AOP_HL for _params
                           8853 ;	genPlusIncr failed
   1CCD 21 0C 00           8854 	ld	hl,#_params + 0
   1CD0 7E                 8855 	ld	a,(hl)
   1CD1 81                 8856 	add	a,c
   1CD2 5F                 8857 	ld	e,a
   1CD3 23                 8858 	inc	hl
   1CD4 7E                 8859 	ld	a,(hl)
   1CD5 CE 00              8860 	adc	a,#0x00
   1CD7 57                 8861 	ld	d,a
                           8862 ; genPointerGet
                           8863 ; AOP_STK for _draw_screen_sloc1_1_0
                           8864 ; Removed redundent load
                           8865 ; Removed redundent load
   1CD8 1A                 8866 	ld	a,(de)
   1CD9 F8 00              8867 	lda	hl,0(sp)
   1CDB 77                 8868 	ld	(hl),a
   1CDC 13                 8869 	inc	de
   1CDD 1A                 8870 	ld	a,(de)
   1CDE 23                 8871 	inc	hl
   1CDF 77                 8872 	ld	(hl),a
                           8873 ; genIfx
                           8874 ; AOP_STK for _draw_screen_sloc1_1_0
   1CE0 2B                 8875 	dec	hl
                           8876 ; Rule 8
   1CE1 2A                 8877 	ld	a,(hl+)
   1CE2 B6                 8878 	or	a,(hl)
   1CE3 CA 3C 1D           8879 	jp	z,00104$
                           8880 ;	sound.c 814
                           8881 ; genCast
                           8882 ; AOP_STK for _draw_screen_i_1_1
   1CE6 23                 8883 	inc	hl
   1CE7 23                 8884 	inc	hl
   1CE8 4E                 8885 	ld	c,(hl)
   1CE9 06 00              8886 	ld	b,#0x00
                           8887 ; genPlus
                           8888 ; genPlusIncr
   1CEB 03                 8889 	inc	bc
   1CEC 03                 8890 	inc	bc
                           8891 ; genCast
                           8892 ; Removed redundent load
                           8893 ; genIpush
   1CED 79                 8894 	ld	a,c
   1CEE F5                 8895 	push	af
   1CEF 33                 8896 	inc	sp
                           8897 ; genIpush
   1CF0 3E 01              8898 	ld	a,#0x01
   1CF2 F5                 8899 	push	af
   1CF3 33                 8900 	inc	sp
                           8901 ; genCall
   1CF4 CD 00 00           8902 	call	_gotoxy
   1CF7 E8 02              8903 	lda	sp,2(sp)
                           8904 ;	sound.c 815
                           8905 ; genIpush
                           8906 ; AOP_STK for _draw_screen_sloc1_1_0
   1CF9 F8 00              8907 	lda	hl,0(sp)
   1CFB 2A                 8908 	ld	a,(hl+)
   1CFC 66                 8909 	ld	h,(hl)
   1CFD 6F                 8910 	ld	l,a
   1CFE E5                 8911 	push	hl
                           8912 ; genCall
   1CFF CD 39 00           8913 	call	_print
   1D02 E8 02              8914 	lda	sp,2(sp)
                           8915 ;	sound.c 816
                           8916 ; genIpush
   1D04 79                 8917 	ld	a,c
   1D05 F5                 8918 	push	af
   1D06 33                 8919 	inc	sp
                           8920 ; genIpush
   1D07 3E 0F              8921 	ld	a,#0x0F
   1D09 F5                 8922 	push	af
   1D0A 33                 8923 	inc	sp
                           8924 ; genCall
   1D0B CD 00 00           8925 	call	_gotoxy
   1D0E E8 02              8926 	lda	sp,2(sp)
                           8927 ;	sound.c 817
                           8928 ; genIpush
                           8929 ; AOP_STK for _draw_screen_i_1_1
   1D10 F8 03              8930 	lda	hl,3(sp)
   1D12 7E                 8931 	ld	a,(hl)
   1D13 F5                 8932 	push	af
   1D14 33                 8933 	inc	sp
                           8934 ; genIpush
                           8935 ; AOP_STK for 
   1D15 F8 09              8936 	lda	hl,9(sp)
   1D17 7E                 8937 	ld	a,(hl)
   1D18 F5                 8938 	push	af
   1D19 33                 8939 	inc	sp
                           8940 ; genCall
   1D1A CD 92 0B           8941 	call	_current_value
                           8942 ; AOP_STK for _draw_screen_sloc1_1_0
   1D1D F8 03              8943 	lda	hl,3(sp)
   1D1F 72                 8944 	ld	(hl),d
   1D20 2B                 8945 	dec	hl
   1D21 73                 8946 	ld	(hl),e
   1D22 E8 02              8947 	lda	sp,2(sp)
                           8948 ; genIpush
   1D24 3E 00              8949 	ld	a,#0x00
   1D26 F5                 8950 	push	af
   1D27 33                 8951 	inc	sp
                           8952 ; genIpush
   1D28 3E 0A              8953 	ld	a,#0x0A
   1D2A F5                 8954 	push	af
   1D2B 33                 8955 	inc	sp
                           8956 ; genIpush
                           8957 ; AOP_STK for _draw_screen_sloc1_1_0
   1D2C 2A                 8958 	ld	a,(hl+)
   1D2D 66                 8959 	ld	h,(hl)
   1D2E 6F                 8960 	ld	l,a
   1D2F E5                 8961 	push	hl
                           8962 ; genCall
   1D30 CD D2 00           8963 	call	_println
   1D33 E8 04              8964 	lda	sp,4(sp)
                           8965 ;	sound.c 813
                           8966 ; genAssign
                           8967 ; AOP_STK for _draw_screen_sloc0_1_0
                           8968 ; AOP_STK for _draw_screen_i_1_1
   1D35 F8 02              8969 	lda	hl,2(sp)
   1D37 2A                 8970 	ld	a,(hl+)
   1D38 77                 8971 	ld	(hl),a
                           8972 ; genGoto
   1D39 C3 C2 1C           8973 	jp	00101$
                           8974 ; genLabel
   1D3C                    8975 00104$:
                           8976 ;	sound.c 819
                           8977 ; genMinus
                           8978 ; AOP_STK for _draw_screen_i_1_1
   1D3C F8 03              8979 	lda	hl,3(sp)
   1D3E 7E                 8980 	ld	a,(hl)
   1D3F C6 FF              8981 	add	a,#0xFF
   1D41 4F                 8982 	ld	c,a
                           8983 ; genRet
   1D42 59                 8984 	ld	e,c
                           8985 ; genLabel
   1D43                    8986 00105$:
                           8987 ; genEndFunction
   1D43 E8 04              8988 	lda	sp,4(sp)
   1D45 C1                 8989 	pop	bc
   1D46 C9                 8990 	ret
   1D47                    8991 ___draw_screen_end:
                           8992 ;	sound.c 823
                           8993 ; genLabel
                           8994 ; genFunction
                           8995 ;	---------------------------------
                           8996 ; Function play_music
                           8997 ; ---------------------------------
   1D47                    8998 ___play_music_start:
   1D47                    8999 _play_music:
   1D47 C5                 9000 	push	bc
   1D48 E8 FF              9001 	lda	sp,-1(sp)
                           9002 ;	sound.c 825
                           9003 ; genAssign
                           9004 ; AOP_STK for _play_music_i_1_1
   1D4A F8 00              9005 	lda	hl,0(sp)
   1D4C 36 00              9006 	ld	(hl),#0x00
                           9007 ;	sound.c 827
                           9008 ; genLabel
   1D4E                    9009 00103$:
                           9010 ; genPlus
                           9011 ; AOP_STK for _play_music_i_1_1
                           9012 ;	genPlusIncr failed
   1D4E 11 E3 01           9013 	ld	de,#_music + 0
   1D51 F8 00              9014 	lda	hl,0(sp)
   1D53 6E                 9015 	ld	l,(hl)
   1D54 26 00              9016 	ld	h,#0x00
   1D56 19                 9017 	add	hl,de
   1D57 5D                 9018 	ld	e,l
   1D58 54                 9019 	ld	d,h
                           9020 ; genPointerGet
   1D59 1A                 9021 	ld	a,(de)
   1D5A 47                 9022 	ld	b,a
                           9023 ; genCmpEq
   1D5B 78                 9024 	ld	a,b ; 2
   1D5C FE 49              9025 	cp	a,#0x49
                           9026 ; Rule 5
   1D5E CA AA 1D           9027 	jp	z,00106$
   1D61                    9028 00111$:
                           9029 ;	sound.c 828
                           9030 ; genCmpEq
   1D61 78                 9031 	ld	a,b ; 2
   1D62 FE 48              9032 	cp	a,#0x48
                           9033 ; Rule 5
   1D64 CA 9B 1D           9034 	jp	z,00102$
   1D67                    9035 00112$:
                           9036 ;	sound.c 829
                           9037 ; genLeftShift
   1D67 78                 9038 	ld	a,b
   1D68 87                 9039 	add	a,a
   1D69 47                 9040 	ld	b,a
                           9041 ; genPlus
                           9042 ;	genPlusIncr failed
   1D6A 3E 53              9043 	ld	a,#<_frequencies
   1D6C 80                 9044 	add	a,b
   1D6D 5F                 9045 	ld	e,a
   1D6E 3E 01              9046 	ld	a,#>_frequencies
   1D70 CE 00              9047 	adc	a,#0x00
   1D72 57                 9048 	ld	d,a
                           9049 ; genPointerGet
                           9050 ; Removed redundent load
                           9051 ; Removed redundent load
   1D73 1A                 9052 	ld	a,(de)
   1D74 47                 9053 	ld	b,a
   1D75 13                 9054 	inc	de
   1D76 1A                 9055 	ld	a,(de)
   1D77 4F                 9056 	ld	c,a
                           9057 ; genIpush
   1D78 68                 9058 	ld	l,b
   1D79 61                 9059 	ld	h,c
   1D7A E5                 9060 	push	hl
                           9061 ; genIpush
   1D7B 3E 21              9062 	ld	a,#0x21
   1D7D F5                 9063 	push	af
   1D7E 33                 9064 	inc	sp
                           9065 ; genIpush
                           9066 ; AOP_STK for 
   1D7F F8 08              9067 	lda	hl,8(sp)
   1D81 7E                 9068 	ld	a,(hl)
   1D82 F5                 9069 	push	af
   1D83 33                 9070 	inc	sp
                           9071 ; genCall
   1D84 CD 0A 12           9072 	call	_update_value
   1D87 E8 04              9073 	lda	sp,4(sp)
                           9074 ;	sound.c 830
                           9075 ; genIpush
   1D89 21 01 00           9076 	ld	hl,#0x0001
   1D8C E5                 9077 	push	hl
                           9078 ; genIpush
   1D8D 3E 20              9079 	ld	a,#0x20
   1D8F F5                 9080 	push	af
   1D90 33                 9081 	inc	sp
                           9082 ; genIpush
                           9083 ; AOP_STK for 
   1D91 F8 08              9084 	lda	hl,8(sp)
   1D93 7E                 9085 	ld	a,(hl)
   1D94 F5                 9086 	push	af
   1D95 33                 9087 	inc	sp
                           9088 ; genCall
   1D96 CD 0A 12           9089 	call	_update_value
   1D99 E8 04              9090 	lda	sp,4(sp)
                           9091 ; genLabel
   1D9B                    9092 00102$:
                           9093 ;	sound.c 832
                           9094 ; genIpush
   1D9B 21 F4 01           9095 	ld	hl,#0x01F4
   1D9E E5                 9096 	push	hl
                           9097 ; genCall
   1D9F CD 00 00           9098 	call	_delay
   1DA2 E8 02              9099 	lda	sp,2(sp)
                           9100 ;	sound.c 833
                           9101 ; genPlus
                           9102 ; AOP_STK for _play_music_i_1_1
                           9103 ; genPlusIncr
   1DA4 F8 00              9104 	lda	hl,0(sp)
   1DA6 34                 9105 	inc	(hl)
                           9106 ; genGoto
   1DA7 C3 4E 1D           9107 	jp	00103$
                           9108 ; genLabel
   1DAA                    9109 00106$:
                           9110 ; genEndFunction
   1DAA E8 01              9111 	lda	sp,1(sp)
   1DAC C1                 9112 	pop	bc
   1DAD C9                 9113 	ret
   1DAE                    9114 ___play_music_end:
                           9115 ;	sound.c 837
                           9116 ; genLabel
                           9117 ; genFunction
                           9118 ;	---------------------------------
                           9119 ; Function dump_registers
                           9120 ; ---------------------------------
   1DAE                    9121 ___dump_registers_start:
   1DAE                    9122 _dump_registers:
   1DAE C5                 9123 	push	bc
                           9124 	
                           9125 ;	sound.c 839
                           9126 ; genCall
   1DAF CD 00 00           9127 	call	_cls
                           9128 ;	sound.c 840
                           9129 ; genIpush
   1DB2 3E 00              9130 	ld	a,#0x00
   1DB4 F5                 9131 	push	af
   1DB5 33                 9132 	inc	sp
                           9133 ; genIpush
   1DB6 3E 01              9134 	ld	a,#0x01
   1DB8 F5                 9135 	push	af
   1DB9 33                 9136 	inc	sp
                           9137 ; genCall
   1DBA CD 00 00           9138 	call	_gotoxy
   1DBD E8 02              9139 	lda	sp,2(sp)
                           9140 ;	sound.c 841
                           9141 ; genIpush
   1DBF 21 3D 20           9142 	ld	hl,#__str_59 + 0
   1DC2 E5                 9143 	push	hl
                           9144 ; genCall
   1DC3 CD 39 00           9145 	call	_print
   1DC6 E8 02              9146 	lda	sp,2(sp)
                           9147 ;	sound.c 843
                           9148 ; genIpush
   1DC8 21 4D 20           9149 	ld	hl,#__str_60 + 0
   1DCB E5                 9150 	push	hl
                           9151 ; genCall
   1DCC CD 39 00           9152 	call	_print
   1DCF E8 02              9153 	lda	sp,2(sp)
                           9154 ; genCall
   1DD1 CD F2 00           9155 	call	_NR10
   1DD4 4B                 9156 	ld	c,e
                           9157 ; genCast
                           9158 ; Removed redundent load
   1DD5 06 00              9159 	ld	b,#0x00
                           9160 ; genIpush
   1DD7 3E 00              9161 	ld	a,#0x00
   1DD9 F5                 9162 	push	af
   1DDA 33                 9163 	inc	sp
                           9164 ; genIpush
   1DDB 3E 10              9165 	ld	a,#0x10
   1DDD F5                 9166 	push	af
   1DDE 33                 9167 	inc	sp
                           9168 ; genIpush
   1DDF C5                 9169 	push	bc
                           9170 ; genCall
   1DE0 CD D2 00           9171 	call	_println
   1DE3 E8 04              9172 	lda	sp,4(sp)
                           9173 ;	sound.c 844
                           9174 ; genIpush
   1DE5 21 53 20           9175 	ld	hl,#__str_61 + 0
   1DE8 E5                 9176 	push	hl
                           9177 ; genCall
   1DE9 CD 39 00           9178 	call	_print
   1DEC E8 02              9179 	lda	sp,2(sp)
                           9180 ; genCall
   1DEE CD 1B 05           9181 	call	_NR11
   1DF1 4B                 9182 	ld	c,e
                           9183 ; genCast
                           9184 ; Removed redundent load
   1DF2 06 00              9185 	ld	b,#0x00
                           9186 ; genIpush
   1DF4 3E 00              9187 	ld	a,#0x00
   1DF6 F5                 9188 	push	af
   1DF7 33                 9189 	inc	sp
                           9190 ; genIpush
   1DF8 3E 10              9191 	ld	a,#0x10
   1DFA F5                 9192 	push	af
   1DFB 33                 9193 	inc	sp
                           9194 ; genIpush
   1DFC C5                 9195 	push	bc
                           9196 ; genCall
   1DFD CD 4C 00           9197 	call	_printn
   1E00 E8 04              9198 	lda	sp,4(sp)
                           9199 ; genIpush
   1E02 21 59 20           9200 	ld	hl,#__str_62 + 0
   1E05 E5                 9201 	push	hl
                           9202 ; genCall
   1E06 CD 39 00           9203 	call	_print
   1E09 E8 02              9204 	lda	sp,2(sp)
                           9205 ; genCall
   1E0B CD 52 06           9206 	call	_NR21
   1E0E 4B                 9207 	ld	c,e
                           9208 ; genCast
                           9209 ; Removed redundent load
   1E0F 06 00              9210 	ld	b,#0x00
                           9211 ; genIpush
   1E11 3E 00              9212 	ld	a,#0x00
   1E13 F5                 9213 	push	af
   1E14 33                 9214 	inc	sp
                           9215 ; genIpush
   1E15 3E 10              9216 	ld	a,#0x10
   1E17 F5                 9217 	push	af
   1E18 33                 9218 	inc	sp
                           9219 ; genIpush
   1E19 C5                 9220 	push	bc
                           9221 ; genCall
   1E1A CD D2 00           9222 	call	_println
   1E1D E8 04              9223 	lda	sp,4(sp)
                           9224 ;	sound.c 845
                           9225 ; genIpush
   1E1F 21 60 20           9226 	ld	hl,#__str_63 + 0
   1E22 E5                 9227 	push	hl
                           9228 ; genCall
   1E23 CD 39 00           9229 	call	_print
   1E26 E8 02              9230 	lda	sp,2(sp)
                           9231 ; genCall
   1E28 CD 61 05           9232 	call	_NR12
   1E2B 4B                 9233 	ld	c,e
                           9234 ; genCast
                           9235 ; Removed redundent load
   1E2C 06 00              9236 	ld	b,#0x00
                           9237 ; genIpush
   1E2E 3E 00              9238 	ld	a,#0x00
   1E30 F5                 9239 	push	af
   1E31 33                 9240 	inc	sp
                           9241 ; genIpush
   1E32 3E 10              9242 	ld	a,#0x10
   1E34 F5                 9243 	push	af
   1E35 33                 9244 	inc	sp
                           9245 ; genIpush
   1E36 C5                 9246 	push	bc
                           9247 ; genCall
   1E37 CD 4C 00           9248 	call	_printn
   1E3A E8 04              9249 	lda	sp,4(sp)
                           9250 ; genIpush
   1E3C 21 66 20           9251 	ld	hl,#__str_64 + 0
   1E3F E5                 9252 	push	hl
                           9253 ; genCall
   1E40 CD 39 00           9254 	call	_print
   1E43 E8 02              9255 	lda	sp,2(sp)
                           9256 ; genCall
   1E45 CD 98 06           9257 	call	_NR22
   1E48 4B                 9258 	ld	c,e
                           9259 ; genCast
                           9260 ; Removed redundent load
   1E49 06 00              9261 	ld	b,#0x00
                           9262 ; genIpush
   1E4B 3E 00              9263 	ld	a,#0x00
   1E4D F5                 9264 	push	af
   1E4E 33                 9265 	inc	sp
                           9266 ; genIpush
   1E4F 3E 10              9267 	ld	a,#0x10
   1E51 F5                 9268 	push	af
   1E52 33                 9269 	inc	sp
                           9270 ; genIpush
   1E53 C5                 9271 	push	bc
                           9272 ; genCall
   1E54 CD D2 00           9273 	call	_println
   1E57 E8 04              9274 	lda	sp,4(sp)
                           9275 ;	sound.c 846
                           9276 ; genIpush
   1E59 21 6D 20           9277 	ld	hl,#__str_65 + 0
   1E5C E5                 9278 	push	hl
                           9279 ; genCall
   1E5D CD 39 00           9280 	call	_print
   1E60 E8 02              9281 	lda	sp,2(sp)
                           9282 ; genCall
   1E62 CD CE 05           9283 	call	_NR13
   1E65 4B                 9284 	ld	c,e
                           9285 ; genCast
                           9286 ; Removed redundent load
   1E66 06 00              9287 	ld	b,#0x00
                           9288 ; genIpush
   1E68 3E 00              9289 	ld	a,#0x00
   1E6A F5                 9290 	push	af
   1E6B 33                 9291 	inc	sp
                           9292 ; genIpush
   1E6C 3E 10              9293 	ld	a,#0x10
   1E6E F5                 9294 	push	af
   1E6F 33                 9295 	inc	sp
                           9296 ; genIpush
   1E70 C5                 9297 	push	bc
                           9298 ; genCall
   1E71 CD 4C 00           9299 	call	_printn
   1E74 E8 04              9300 	lda	sp,4(sp)
                           9301 ; genIpush
   1E76 21 73 20           9302 	ld	hl,#__str_66 + 0
   1E79 E5                 9303 	push	hl
                           9304 ; genCall
   1E7A CD 39 00           9305 	call	_print
   1E7D E8 02              9306 	lda	sp,2(sp)
                           9307 ; genCall
   1E7F CD 05 07           9308 	call	_NR23
   1E82 4B                 9309 	ld	c,e
                           9310 ; genCast
                           9311 ; Removed redundent load
   1E83 06 00              9312 	ld	b,#0x00
                           9313 ; genIpush
   1E85 3E 00              9314 	ld	a,#0x00
   1E87 F5                 9315 	push	af
   1E88 33                 9316 	inc	sp
                           9317 ; genIpush
   1E89 3E 10              9318 	ld	a,#0x10
   1E8B F5                 9319 	push	af
   1E8C 33                 9320 	inc	sp
                           9321 ; genIpush
   1E8D C5                 9322 	push	bc
                           9323 ; genCall
   1E8E CD D2 00           9324 	call	_println
   1E91 E8 04              9325 	lda	sp,4(sp)
                           9326 ;	sound.c 847
                           9327 ; genIpush
   1E93 21 7A 20           9328 	ld	hl,#__str_67 + 0
   1E96 E5                 9329 	push	hl
                           9330 ; genCall
   1E97 CD 39 00           9331 	call	_print
   1E9A E8 02              9332 	lda	sp,2(sp)
                           9333 ; genCall
   1E9C CD E5 05           9334 	call	_NR14
   1E9F 4B                 9335 	ld	c,e
                           9336 ; genCast
                           9337 ; Removed redundent load
   1EA0 06 00              9338 	ld	b,#0x00
                           9339 ; genIpush
   1EA2 3E 00              9340 	ld	a,#0x00
   1EA4 F5                 9341 	push	af
   1EA5 33                 9342 	inc	sp
                           9343 ; genIpush
   1EA6 3E 10              9344 	ld	a,#0x10
   1EA8 F5                 9345 	push	af
   1EA9 33                 9346 	inc	sp
                           9347 ; genIpush
   1EAA C5                 9348 	push	bc
                           9349 ; genCall
   1EAB CD 4C 00           9350 	call	_printn
   1EAE E8 04              9351 	lda	sp,4(sp)
                           9352 ; genIpush
   1EB0 21 80 20           9353 	ld	hl,#__str_68 + 0
   1EB3 E5                 9354 	push	hl
                           9355 ; genCall
   1EB4 CD 39 00           9356 	call	_print
   1EB7 E8 02              9357 	lda	sp,2(sp)
                           9358 ; genCall
   1EB9 CD 1C 07           9359 	call	_NR24
   1EBC 4B                 9360 	ld	c,e
                           9361 ; genCast
                           9362 ; Removed redundent load
   1EBD 06 00              9363 	ld	b,#0x00
                           9364 ; genIpush
   1EBF 3E 00              9365 	ld	a,#0x00
   1EC1 F5                 9366 	push	af
   1EC2 33                 9367 	inc	sp
                           9368 ; genIpush
   1EC3 3E 10              9369 	ld	a,#0x10
   1EC5 F5                 9370 	push	af
   1EC6 33                 9371 	inc	sp
                           9372 ; genIpush
   1EC7 C5                 9373 	push	bc
                           9374 ; genCall
   1EC8 CD D2 00           9375 	call	_println
   1ECB E8 04              9376 	lda	sp,4(sp)
                           9377 ;	sound.c 848
                           9378 ; genIpush
   1ECD 21 87 20           9379 	ld	hl,#__str_69 + 0
   1ED0 E5                 9380 	push	hl
                           9381 ; genCall
   1ED1 CD 00 00           9382 	call	_printf
   1ED4 E8 02              9383 	lda	sp,2(sp)
                           9384 ;	sound.c 850
                           9385 ; genIpush
   1ED6 21 89 20           9386 	ld	hl,#__str_70 + 0
   1ED9 E5                 9387 	push	hl
                           9388 ; genCall
   1EDA CD 39 00           9389 	call	_print
   1EDD E8 02              9390 	lda	sp,2(sp)
                           9391 ; genCall
   1EDF CD 89 07           9392 	call	_NR30
   1EE2 4B                 9393 	ld	c,e
                           9394 ; genCast
                           9395 ; Removed redundent load
   1EE3 06 00              9396 	ld	b,#0x00
                           9397 ; genIpush
   1EE5 3E 00              9398 	ld	a,#0x00
   1EE7 F5                 9399 	push	af
   1EE8 33                 9400 	inc	sp
                           9401 ; genIpush
   1EE9 3E 10              9402 	ld	a,#0x10
   1EEB F5                 9403 	push	af
   1EEC 33                 9404 	inc	sp
                           9405 ; genIpush
   1EED C5                 9406 	push	bc
                           9407 ; genCall
   1EEE CD D2 00           9408 	call	_println
   1EF1 E8 04              9409 	lda	sp,4(sp)
                           9410 ;	sound.c 851
                           9411 ; genIpush
   1EF3 21 8F 20           9412 	ld	hl,#__str_71 + 0
   1EF6 E5                 9413 	push	hl
                           9414 ; genCall
   1EF7 CD 39 00           9415 	call	_print
   1EFA E8 02              9416 	lda	sp,2(sp)
                           9417 ; genCall
   1EFC CD AC 07           9418 	call	_NR31
   1EFF 4B                 9419 	ld	c,e
                           9420 ; genCast
                           9421 ; Removed redundent load
   1F00 06 00              9422 	ld	b,#0x00
                           9423 ; genIpush
   1F02 3E 00              9424 	ld	a,#0x00
   1F04 F5                 9425 	push	af
   1F05 33                 9426 	inc	sp
                           9427 ; genIpush
   1F06 3E 10              9428 	ld	a,#0x10
   1F08 F5                 9429 	push	af
   1F09 33                 9430 	inc	sp
                           9431 ; genIpush
   1F0A C5                 9432 	push	bc
                           9433 ; genCall
   1F0B CD 4C 00           9434 	call	_printn
   1F0E E8 04              9435 	lda	sp,4(sp)
                           9436 ; genIpush
   1F10 21 95 20           9437 	ld	hl,#__str_72 + 0
   1F13 E5                 9438 	push	hl
                           9439 ; genCall
   1F14 CD 39 00           9440 	call	_print
   1F17 E8 02              9441 	lda	sp,2(sp)
                           9442 ; genCall
   1F19 CD 6A 08           9443 	call	_NR41
   1F1C 4B                 9444 	ld	c,e
                           9445 ; genCast
                           9446 ; Removed redundent load
   1F1D 06 00              9447 	ld	b,#0x00
                           9448 ; genIpush
   1F1F 3E 00              9449 	ld	a,#0x00
   1F21 F5                 9450 	push	af
   1F22 33                 9451 	inc	sp
                           9452 ; genIpush
   1F23 3E 10              9453 	ld	a,#0x10
   1F25 F5                 9454 	push	af
   1F26 33                 9455 	inc	sp
                           9456 ; genIpush
   1F27 C5                 9457 	push	bc
                           9458 ; genCall
   1F28 CD D2 00           9459 	call	_println
   1F2B E8 04              9460 	lda	sp,4(sp)
                           9461 ;	sound.c 852
                           9462 ; genIpush
   1F2D 21 9C 20           9463 	ld	hl,#__str_73 + 0
   1F30 E5                 9464 	push	hl
                           9465 ; genCall
   1F31 CD 39 00           9466 	call	_print
   1F34 E8 02              9467 	lda	sp,2(sp)
                           9468 ; genCall
   1F36 CD C3 07           9469 	call	_NR32
   1F39 4B                 9470 	ld	c,e
                           9471 ; genCast
                           9472 ; Removed redundent load
   1F3A 06 00              9473 	ld	b,#0x00
                           9474 ; genIpush
   1F3C 3E 00              9475 	ld	a,#0x00
   1F3E F5                 9476 	push	af
   1F3F 33                 9477 	inc	sp
                           9478 ; genIpush
   1F40 3E 10              9479 	ld	a,#0x10
   1F42 F5                 9480 	push	af
   1F43 33                 9481 	inc	sp
                           9482 ; genIpush
   1F44 C5                 9483 	push	bc
                           9484 ; genCall
   1F45 CD 4C 00           9485 	call	_printn
   1F48 E8 04              9486 	lda	sp,4(sp)
                           9487 ; genIpush
   1F4A 21 A2 20           9488 	ld	hl,#__str_74 + 0
   1F4D E5                 9489 	push	hl
                           9490 ; genCall
   1F4E CD 39 00           9491 	call	_print
   1F51 E8 02              9492 	lda	sp,2(sp)
                           9493 ; genCall
   1F53 CD 81 08           9494 	call	_NR42
   1F56 4B                 9495 	ld	c,e
                           9496 ; genCast
                           9497 ; Removed redundent load
   1F57 06 00              9498 	ld	b,#0x00
                           9499 ; genIpush
   1F59 3E 00              9500 	ld	a,#0x00
   1F5B F5                 9501 	push	af
   1F5C 33                 9502 	inc	sp
                           9503 ; genIpush
   1F5D 3E 10              9504 	ld	a,#0x10
   1F5F F5                 9505 	push	af
   1F60 33                 9506 	inc	sp
                           9507 ; genIpush
   1F61 C5                 9508 	push	bc
                           9509 ; genCall
   1F62 CD D2 00           9510 	call	_println
   1F65 E8 04              9511 	lda	sp,4(sp)
                           9512 ;	sound.c 853
                           9513 ; genIpush
   1F67 21 A9 20           9514 	ld	hl,#__str_75 + 0
   1F6A E5                 9515 	push	hl
                           9516 ; genCall
   1F6B CD 39 00           9517 	call	_print
   1F6E E8 02              9518 	lda	sp,2(sp)
                           9519 ; genCall
   1F70 CD E6 07           9520 	call	_NR33
   1F73 4B                 9521 	ld	c,e
                           9522 ; genCast
                           9523 ; Removed redundent load
   1F74 06 00              9524 	ld	b,#0x00
                           9525 ; genIpush
   1F76 3E 00              9526 	ld	a,#0x00
   1F78 F5                 9527 	push	af
   1F79 33                 9528 	inc	sp
                           9529 ; genIpush
   1F7A 3E 10              9530 	ld	a,#0x10
   1F7C F5                 9531 	push	af
   1F7D 33                 9532 	inc	sp
                           9533 ; genIpush
   1F7E C5                 9534 	push	bc
                           9535 ; genCall
   1F7F CD 4C 00           9536 	call	_printn
   1F82 E8 04              9537 	lda	sp,4(sp)
                           9538 ; genIpush
   1F84 21 AF 20           9539 	ld	hl,#__str_76 + 0
   1F87 E5                 9540 	push	hl
                           9541 ; genCall
   1F88 CD 39 00           9542 	call	_print
   1F8B E8 02              9543 	lda	sp,2(sp)
                           9544 ; genCall
   1F8D CD EE 08           9545 	call	_NR43
   1F90 4B                 9546 	ld	c,e
                           9547 ; genCast
                           9548 ; Removed redundent load
   1F91 06 00              9549 	ld	b,#0x00
                           9550 ; genIpush
   1F93 3E 00              9551 	ld	a,#0x00
   1F95 F5                 9552 	push	af
   1F96 33                 9553 	inc	sp
                           9554 ; genIpush
   1F97 3E 10              9555 	ld	a,#0x10
   1F99 F5                 9556 	push	af
   1F9A 33                 9557 	inc	sp
                           9558 ; genIpush
   1F9B C5                 9559 	push	bc
                           9560 ; genCall
   1F9C CD D2 00           9561 	call	_println
   1F9F E8 04              9562 	lda	sp,4(sp)
                           9563 ;	sound.c 854
                           9564 ; genIpush
   1FA1 21 B6 20           9565 	ld	hl,#__str_77 + 0
   1FA4 E5                 9566 	push	hl
                           9567 ; genCall
   1FA5 CD 39 00           9568 	call	_print
   1FA8 E8 02              9569 	lda	sp,2(sp)
                           9570 ; genCall
   1FAA CD FD 07           9571 	call	_NR34
   1FAD 4B                 9572 	ld	c,e
                           9573 ; genCast
                           9574 ; Removed redundent load
   1FAE 06 00              9575 	ld	b,#0x00
                           9576 ; genIpush
   1FB0 3E 00              9577 	ld	a,#0x00
   1FB2 F5                 9578 	push	af
   1FB3 33                 9579 	inc	sp
                           9580 ; genIpush
   1FB4 3E 10              9581 	ld	a,#0x10
   1FB6 F5                 9582 	push	af
   1FB7 33                 9583 	inc	sp
                           9584 ; genIpush
   1FB8 C5                 9585 	push	bc
                           9586 ; genCall
   1FB9 CD 4C 00           9587 	call	_printn
   1FBC E8 04              9588 	lda	sp,4(sp)
                           9589 ; genIpush
   1FBE 21 BC 20           9590 	ld	hl,#__str_78 + 0
   1FC1 E5                 9591 	push	hl
                           9592 ; genCall
   1FC2 CD 39 00           9593 	call	_print
   1FC5 E8 02              9594 	lda	sp,2(sp)
                           9595 ; genCall
   1FC7 CD 5B 09           9596 	call	_NR44
   1FCA 4B                 9597 	ld	c,e
                           9598 ; genCast
                           9599 ; Removed redundent load
   1FCB 06 00              9600 	ld	b,#0x00
                           9601 ; genIpush
   1FCD 3E 00              9602 	ld	a,#0x00
   1FCF F5                 9603 	push	af
   1FD0 33                 9604 	inc	sp
                           9605 ; genIpush
   1FD1 3E 10              9606 	ld	a,#0x10
   1FD3 F5                 9607 	push	af
   1FD4 33                 9608 	inc	sp
                           9609 ; genIpush
   1FD5 C5                 9610 	push	bc
                           9611 ; genCall
   1FD6 CD D2 00           9612 	call	_println
   1FD9 E8 04              9613 	lda	sp,4(sp)
                           9614 ;	sound.c 855
                           9615 ; genIpush
   1FDB 21 C3 20           9616 	ld	hl,#__str_79 + 0
   1FDE E5                 9617 	push	hl
                           9618 ; genCall
   1FDF CD 00 00           9619 	call	_printf
   1FE2 E8 02              9620 	lda	sp,2(sp)
                           9621 ;	sound.c 857
                           9622 ; genIpush
   1FE4 21 C5 20           9623 	ld	hl,#__str_80 + 0
   1FE7 E5                 9624 	push	hl
                           9625 ; genCall
   1FE8 CD 39 00           9626 	call	_print
   1FEB E8 02              9627 	lda	sp,2(sp)
                           9628 ; genCall
   1FED CD B2 09           9629 	call	_NR50
   1FF0 4B                 9630 	ld	c,e
                           9631 ; genCast
                           9632 ; Removed redundent load
   1FF1 06 00              9633 	ld	b,#0x00
                           9634 ; genIpush
   1FF3 3E 00              9635 	ld	a,#0x00
   1FF5 F5                 9636 	push	af
   1FF6 33                 9637 	inc	sp
                           9638 ; genIpush
   1FF7 3E 10              9639 	ld	a,#0x10
   1FF9 F5                 9640 	push	af
   1FFA 33                 9641 	inc	sp
                           9642 ; genIpush
   1FFB C5                 9643 	push	bc
                           9644 ; genCall
   1FFC CD D2 00           9645 	call	_println
   1FFF E8 04              9646 	lda	sp,4(sp)
                           9647 ;	sound.c 858
                           9648 ; genIpush
   2001 21 CB 20           9649 	ld	hl,#__str_81 + 0
   2004 E5                 9650 	push	hl
                           9651 ; genCall
   2005 CD 39 00           9652 	call	_print
   2008 E8 02              9653 	lda	sp,2(sp)
                           9654 ; genCall
   200A CD 46 0A           9655 	call	_NR51
   200D 4B                 9656 	ld	c,e
                           9657 ; genCast
                           9658 ; Removed redundent load
   200E 06 00              9659 	ld	b,#0x00
                           9660 ; genIpush
   2010 3E 00              9661 	ld	a,#0x00
   2012 F5                 9662 	push	af
   2013 33                 9663 	inc	sp
                           9664 ; genIpush
   2014 3E 10              9665 	ld	a,#0x10
   2016 F5                 9666 	push	af
   2017 33                 9667 	inc	sp
                           9668 ; genIpush
   2018 C5                 9669 	push	bc
                           9670 ; genCall
   2019 CD D2 00           9671 	call	_println
   201C E8 04              9672 	lda	sp,4(sp)
                           9673 ;	sound.c 859
                           9674 ; genIpush
   201E 21 D1 20           9675 	ld	hl,#__str_82 + 0
   2021 E5                 9676 	push	hl
                           9677 ; genCall
   2022 CD 39 00           9678 	call	_print
   2025 E8 02              9679 	lda	sp,2(sp)
                           9680 ; genCall
   2027 CD 6F 0B           9681 	call	_NR52
   202A 4B                 9682 	ld	c,e
                           9683 ; genCast
                           9684 ; Removed redundent load
   202B 06 00              9685 	ld	b,#0x00
                           9686 ; genIpush
   202D 3E 00              9687 	ld	a,#0x00
   202F F5                 9688 	push	af
   2030 33                 9689 	inc	sp
                           9690 ; genIpush
   2031 3E 10              9691 	ld	a,#0x10
   2033 F5                 9692 	push	af
   2034 33                 9693 	inc	sp
                           9694 ; genIpush
   2035 C5                 9695 	push	bc
                           9696 ; genCall
   2036 CD D2 00           9697 	call	_println
   2039 E8 04              9698 	lda	sp,4(sp)
                           9699 ; genLabel
   203B                    9700 00101$:
                           9701 ; genEndFunction
                           9702 	
   203B C1                 9703 	pop	bc
   203C C9                 9704 	ret
   203D                    9705 ___dump_registers_end:
   203D                    9706 __str_59:
   203D 52 65 67 69 73 74  9707 	.ascii "Register Dump"
        65 72 20 44 75 6D
        70
   204A 0A                 9708 	.db 0x0A
   204B 0A                 9709 	.db 0x0A
   204C 00                 9710 	.db 0x00
   204D                    9711 __str_60:
   204D 4E 52 31 30 3A     9712 	.ascii "NR10:"
   2052 00                 9713 	.db 0x00
   2053                    9714 __str_61:
   2053 4E 52 31 31 3A     9715 	.ascii "NR11:"
   2058 00                 9716 	.db 0x00
   2059                    9717 __str_62:
   2059 20 4E 52 32 31 3A  9718 	.ascii " NR21:"
   205F 00                 9719 	.db 0x00
   2060                    9720 __str_63:
   2060 4E 52 31 32 3A     9721 	.ascii "NR12:"
   2065 00                 9722 	.db 0x00
   2066                    9723 __str_64:
   2066 20 4E 52 32 32 3A  9724 	.ascii " NR22:"
   206C 00                 9725 	.db 0x00
   206D                    9726 __str_65:
   206D 4E 52 31 33 3A     9727 	.ascii "NR13:"
   2072 00                 9728 	.db 0x00
   2073                    9729 __str_66:
   2073 20 4E 52 32 33 3A  9730 	.ascii " NR23:"
   2079 00                 9731 	.db 0x00
   207A                    9732 __str_67:
   207A 4E 52 31 34 3A     9733 	.ascii "NR14:"
   207F 00                 9734 	.db 0x00
   2080                    9735 __str_68:
   2080 20 4E 52 32 34 3A  9736 	.ascii " NR24:"
   2086 00                 9737 	.db 0x00
   2087                    9738 __str_69:
   2087 0A                 9739 	.db 0x0A
   2088 00                 9740 	.db 0x00
   2089                    9741 __str_70:
   2089 4E 52 33 30 3A     9742 	.ascii "NR30:"
   208E 00                 9743 	.db 0x00
   208F                    9744 __str_71:
   208F 4E 52 33 31 3A     9745 	.ascii "NR31:"
   2094 00                 9746 	.db 0x00
   2095                    9747 __str_72:
   2095 20 4E 52 34 31 3A  9748 	.ascii " NR41:"
   209B 00                 9749 	.db 0x00
   209C                    9750 __str_73:
   209C 4E 52 33 32 3A     9751 	.ascii "NR32:"
   20A1 00                 9752 	.db 0x00
   20A2                    9753 __str_74:
   20A2 20 4E 52 34 32 3A  9754 	.ascii " NR42:"
   20A8 00                 9755 	.db 0x00
   20A9                    9756 __str_75:
   20A9 4E 52 33 33 3A     9757 	.ascii "NR33:"
   20AE 00                 9758 	.db 0x00
   20AF                    9759 __str_76:
   20AF 20 4E 52 34 33 3A  9760 	.ascii " NR43:"
   20B5 00                 9761 	.db 0x00
   20B6                    9762 __str_77:
   20B6 4E 52 33 34 3A     9763 	.ascii "NR34:"
   20BB 00                 9764 	.db 0x00
   20BC                    9765 __str_78:
   20BC 20 4E 52 34 34 3A  9766 	.ascii " NR44:"
   20C2 00                 9767 	.db 0x00
   20C3                    9768 __str_79:
   20C3 0A                 9769 	.db 0x0A
   20C4 00                 9770 	.db 0x00
   20C5                    9771 __str_80:
   20C5 4E 52 35 30 3A     9772 	.ascii "NR50:"
   20CA 00                 9773 	.db 0x00
   20CB                    9774 __str_81:
   20CB 4E 52 35 31 3A     9775 	.ascii "NR51:"
   20D0 00                 9776 	.db 0x00
   20D1                    9777 __str_82:
   20D1 4E 52 35 32 3A     9778 	.ascii "NR52:"
   20D6 00                 9779 	.db 0x00
                           9780 ;	sound.c 862
                           9781 ; genLabel
                           9782 ; genFunction
                           9783 ;	---------------------------------
                           9784 ; Function wait_event
                           9785 ; ---------------------------------
   20D7                    9786 ___wait_event_start:
   20D7                    9787 _wait_event:
   20D7 C5                 9788 	push	bc
   20D8 E8 F5              9789 	lda	sp,-11(sp)
                           9790 ;	sound.c 868
                           9791 ; genLabel
   20DA                    9792 00149$:
                           9793 ;	sound.c 869
                           9794 ; genLeftShift
                           9795 ; AOP_STK for 
   20DA F8 0F              9796 	lda	hl,15(sp)
   20DC 7E                 9797 	ld	a,(hl)
   20DD 87                 9798 	add	a,a
   20DE 4F                 9799 	ld	c,a
                           9800 ; genPlus
                           9801 ;	genPlusIncr failed
   20DF 3E 02              9802 	ld	a,#<_params_array
   20E1 81                 9803 	add	a,c
   20E2 5F                 9804 	ld	e,a
   20E3 3E 00              9805 	ld	a,#>_params_array
   20E5 CE 00              9806 	adc	a,#0x00
   20E7 57                 9807 	ld	d,a
                           9808 ; genPointerGet
                           9809 ; AOP_HL for _params
                           9810 ; Removed redundent load
                           9811 ; Removed redundent load
   20E8 1A                 9812 	ld	a,(de)
   20E9 21 0C 00           9813 	ld	hl,#_params + 0
   20EC 77                 9814 	ld	(hl),a
   20ED 13                 9815 	inc	de
   20EE 1A                 9816 	ld	a,(de)
   20EF 23                 9817 	inc	hl
   20F0 77                 9818 	ld	(hl),a
                           9819 ;	sound.c 870
                           9820 ; genIpush
                           9821 ; AOP_STK for 
   20F1 F8 0F              9822 	lda	hl,15(sp)
   20F3 7E                 9823 	ld	a,(hl)
   20F4 F5                 9824 	push	af
   20F5 33                 9825 	inc	sp
                           9826 ; genCall
   20F6 CD 9A 1C           9827 	call	_draw_screen
   20F9 4B                 9828 	ld	c,e
   20FA E8 01              9829 	lda	sp,1(sp)
                           9830 ; genCast
                           9831 ; Removed redundent load
   20FC 06 00              9832 	ld	b,#0x00
                           9833 ; genPlus
                           9834 ; genPlusIncr
   20FE 03                 9835 	inc	bc
   20FF 03                 9836 	inc	bc
                           9837 ; genCast
                           9838 ; AOP_STK for _wait_event_last_y_1_1
   2100 F8 08              9839 	lda	hl,8(sp)
   2102 71                 9840 	ld	(hl),c
                           9841 ;	sound.c 871
                           9842 ; genAssign
                           9843 ; AOP_STK for _wait_event_y_1_1
   2103 23                 9844 	inc	hl
   2104 36 02              9845 	ld	(hl),#0x02
                           9846 ;	sound.c 872
                           9847 ; genIpush
   2106 3E 02              9848 	ld	a,#0x02
   2108 F5                 9849 	push	af
   2109 33                 9850 	inc	sp
                           9851 ; genIpush
   210A 3E 00              9852 	ld	a,#0x00
   210C F5                 9853 	push	af
   210D 33                 9854 	inc	sp
                           9855 ; genCall
   210E CD 00 00           9856 	call	_gotoxy
   2111 E8 02              9857 	lda	sp,2(sp)
                           9858 ;	sound.c 873
                           9859 ; genIpush
   2113 3E 03              9860 	ld	a,#0x03
   2115 F5                 9861 	push	af
   2116 33                 9862 	inc	sp
                           9863 ; genCall
   2117 CD 00 00           9864 	call	_setchar
   211A E8 01              9865 	lda	sp,1(sp)
                           9866 ;	sound.c 875
                           9867 ; genLabel
   211C                    9868 00146$:
                           9869 ;	sound.c 876
                           9870 ; genCall
   211C CD 00 00           9871 	call	_joypad
                           9872 ; AOP_STK for _wait_event_input_1_1
   211F F8 0A              9873 	lda	hl,10(sp)
   2121 73                 9874 	ld	(hl),e
                           9875 ;	sound.c 877
                           9876 ; genAssign
                           9877 ; (operands are equal 3)
                           9878 ; genAnd
                           9879 ; AOP_HL for _keys
   2122 21 01 00           9880 	ld	hl,#_keys + 0
   2125 7E                 9881 	ld	a,(hl)
   2126 CB 57              9882 	bit	2,a
   2128 CA 7D 21           9883 	jp	z,00142$
                           9884 ; genAnd
                           9885 ; AOP_HL for _previous_keys
   212B 21 00 00           9886 	ld	hl,#_previous_keys + 0
   212E 7E                 9887 	ld	a,(hl)
   212F CB 57              9888 	bit	2,a
   2131 C2 7D 21           9889 	jp	nz,00142$
                           9890 ;	sound.c 878
                           9891 ; genIpush
                           9892 ; AOP_STK for _wait_event_y_1_1
   2134 F8 09              9893 	lda	hl,9(sp)
   2136 7E                 9894 	ld	a,(hl)
   2137 F5                 9895 	push	af
   2138 33                 9896 	inc	sp
                           9897 ; genIpush
   2139 3E 00              9898 	ld	a,#0x00
   213B F5                 9899 	push	af
   213C 33                 9900 	inc	sp
                           9901 ; genCall
   213D CD 00 00           9902 	call	_gotoxy
   2140 E8 02              9903 	lda	sp,2(sp)
                           9904 ; genIpush
   2142 3E 20              9905 	ld	a,#0x20
   2144 F5                 9906 	push	af
   2145 33                 9907 	inc	sp
                           9908 ; genCall
   2146 CD 00 00           9909 	call	_setchar
   2149 E8 01              9910 	lda	sp,1(sp)
                           9911 ;	sound.c 879
                           9912 ; genMinus
                           9913 ; AOP_STK for _wait_event_y_1_1
   214B F8 09              9914 	lda	hl,9(sp)
   214D 35                 9915 	dec	(hl)
                           9916 ; genCast
                           9917 ; AOP_STK for _wait_event_y_1_1
                           9918 ; AOP_STK for _wait_event_sloc0_1_0
   214E 7E                 9919 	ld	a,(hl)
   214F F8 02              9920 	lda	hl,2(sp)
   2151 22                 9921 	ld	(hl+),a
   2152 36 00              9922 	ld	(hl),#0x00
                           9923 ; genCmpLt
                           9924 ; AOP_STK for _wait_event_sloc0_1_0
   2154 2B                 9925 	dec	hl
   2155 5E                 9926 	ld	e,(hl)
   2156 23                 9927 	inc	hl
   2157 56                 9928 	ld	d,(hl)
   2158 21 FE FF           9929 	ld	hl,#0xFFFE
   215B 19                 9930 	add	hl,de
   215C DA 63 21           9931 	jp	c,00102$
                           9932 ;	sound.c 880
                           9933 ; genAssign
                           9934 ; AOP_STK for _wait_event_last_y_1_1
                           9935 ; AOP_STK for _wait_event_y_1_1
   215F F8 08              9936 	lda	hl,8(sp)
   2161 2A                 9937 	ld	a,(hl+)
   2162 77                 9938 	ld	(hl),a
                           9939 ; genLabel
   2163                    9940 00102$:
                           9941 ;	sound.c 881
                           9942 ; genIpush
                           9943 ; AOP_STK for _wait_event_y_1_1
   2163 F8 09              9944 	lda	hl,9(sp)
   2165 7E                 9945 	ld	a,(hl)
   2166 F5                 9946 	push	af
   2167 33                 9947 	inc	sp
                           9948 ; genIpush
   2168 3E 00              9949 	ld	a,#0x00
   216A F5                 9950 	push	af
   216B 33                 9951 	inc	sp
                           9952 ; genCall
   216C CD 00 00           9953 	call	_gotoxy
   216F E8 02              9954 	lda	sp,2(sp)
                           9955 ; genIpush
   2171 3E 03              9956 	ld	a,#0x03
   2173 F5                 9957 	push	af
   2174 33                 9958 	inc	sp
                           9959 ; genCall
   2175 CD 00 00           9960 	call	_setchar
   2178 E8 01              9961 	lda	sp,1(sp)
                           9962 ; genGoto
   217A C3 6F 24           9963 	jp	00143$
                           9964 ; genLabel
   217D                    9965 00142$:
                           9966 ;	sound.c 882
                           9967 ; genAssign
                           9968 ; AOP_HL for _keys
   217D 21 01 00           9969 	ld	hl,#_keys + 0
   2180 4E                 9970 	ld	c,(hl)
                           9971 ; genAnd
   2181 79                 9972 	ld	a,c
   2182 CB 5F              9973 	bit	3,a
   2184 CA CD 21           9974 	jp	z,00138$
                           9975 ; genAnd
                           9976 ; AOP_HL for _previous_keys
   2187 21 00 00           9977 	ld	hl,#_previous_keys + 0
   218A 7E                 9978 	ld	a,(hl)
   218B CB 5F              9979 	bit	3,a
   218D C2 CD 21           9980 	jp	nz,00138$
                           9981 ;	sound.c 883
                           9982 ; genIpush
                           9983 ; AOP_STK for _wait_event_y_1_1
   2190 F8 09              9984 	lda	hl,9(sp)
   2192 7E                 9985 	ld	a,(hl)
   2193 F5                 9986 	push	af
   2194 33                 9987 	inc	sp
                           9988 ; genIpush
   2195 3E 00              9989 	ld	a,#0x00
   2197 F5                 9990 	push	af
   2198 33                 9991 	inc	sp
                           9992 ; genCall
   2199 CD 00 00           9993 	call	_gotoxy
   219C E8 02              9994 	lda	sp,2(sp)
                           9995 ; genIpush
   219E 3E 20              9996 	ld	a,#0x20
   21A0 F5                 9997 	push	af
   21A1 33                 9998 	inc	sp
                           9999 ; genCall
   21A2 CD 00 00          10000 	call	_setchar
   21A5 E8 01             10001 	lda	sp,1(sp)
                          10002 ;	sound.c 884
                          10003 ; genPlus
                          10004 ; AOP_STK for _wait_event_y_1_1
                          10005 ; genPlusIncr
   21A7 F8 09             10006 	lda	hl,9(sp)
   21A9 34                10007 	inc	(hl)
                          10008 ; genCmpGt
                          10009 ; AOP_STK for _wait_event_y_1_1
                          10010 ; AOP_STK for _wait_event_last_y_1_1
   21AA AF                10011 	xor	a,a
   21AB 2B                10012 	dec	hl
   21AC 2A                10013 	ld	a,(hl+)
   21AD 9E                10014 	sbc	a,(hl) ; 2
   21AE D2 B3 21          10015 	jp	nc,00104$
                          10016 ;	sound.c 885
                          10017 ; genAssign
                          10018 ; AOP_STK for _wait_event_y_1_1
   21B1 36 02             10019 	ld	(hl),#0x02
                          10020 ; genLabel
   21B3                   10021 00104$:
                          10022 ;	sound.c 886
                          10023 ; genIpush
                          10024 ; AOP_STK for _wait_event_y_1_1
   21B3 F8 09             10025 	lda	hl,9(sp)
   21B5 7E                10026 	ld	a,(hl)
   21B6 F5                10027 	push	af
   21B7 33                10028 	inc	sp
                          10029 ; genIpush
   21B8 3E 00             10030 	ld	a,#0x00
   21BA F5                10031 	push	af
   21BB 33                10032 	inc	sp
                          10033 ; genCall
   21BC CD 00 00          10034 	call	_gotoxy
   21BF E8 02             10035 	lda	sp,2(sp)
                          10036 ; genIpush
   21C1 3E 03             10037 	ld	a,#0x03
   21C3 F5                10038 	push	af
   21C4 33                10039 	inc	sp
                          10040 ; genCall
   21C5 CD 00 00          10041 	call	_setchar
   21C8 E8 01             10042 	lda	sp,1(sp)
                          10043 ; genGoto
   21CA C3 6F 24          10044 	jp	00143$
                          10045 ; genLabel
   21CD                   10046 00138$:
                          10047 ;	sound.c 887
                          10048 ; genAssign
                          10049 ; AOP_HL for _keys
   21CD 21 01 00          10050 	ld	hl,#_keys + 0
   21D0 4E                10051 	ld	c,(hl)
                          10052 ; genAnd
   21D1 79                10053 	ld	a,c
   21D2 CB 4F             10054 	bit	1,a
   21D4 CA C8 22          10055 	jp	z,00134$
                          10056 ; genAnd
                          10057 ; AOP_HL for _previous_keys
   21D7 21 00 00          10058 	ld	hl,#_previous_keys + 0
   21DA 7E                10059 	ld	a,(hl)
   21DB CB 4F             10060 	bit	1,a
   21DD C2 C8 22          10061 	jp	nz,00134$
                          10062 ;	sound.c 888
                          10063 ; genCast
                          10064 ; AOP_STK for _wait_event_y_1_1
                          10065 ; AOP_STK for _wait_event_sloc0_1_0
   21E0 F8 09             10066 	lda	hl,9(sp)
   21E2 7E                10067 	ld	a,(hl)
   21E3 F8 02             10068 	lda	hl,2(sp)
   21E5 22                10069 	ld	(hl+),a
   21E6 36 00             10070 	ld	(hl),#0x00
                          10071 ; genMinus
                          10072 ; AOP_STK for _wait_event_sloc0_1_0
   21E8 2B                10073 	dec	hl
   21E9 4E                10074 	ld	c,(hl)
   21EA 23                10075 	inc	hl
   21EB 46                10076 	ld	b,(hl)
   21EC 0B                10077 	dec	bc
   21ED 0B                10078 	dec	bc
                          10079 ; genCast
                          10080 ; Removed redundent load
                          10081 ; genIpush
   21EE 79                10082 	ld	a,c
   21EF F5                10083 	push	af
   21F0 33                10084 	inc	sp
                          10085 ; genIpush
                          10086 ; AOP_STK for 
   21F1 F8 10             10087 	lda	hl,16(sp)
   21F3 7E                10088 	ld	a,(hl)
   21F4 F5                10089 	push	af
   21F5 33                10090 	inc	sp
                          10091 ; genCall
   21F6 CD 92 0B          10092 	call	_current_value
                          10093 ; AOP_STK for _wait_event_l_1_1
   21F9 F8 09             10094 	lda	hl,9(sp)
   21FB 72                10095 	ld	(hl),d
   21FC 2B                10096 	dec	hl
   21FD 73                10097 	ld	(hl),e
   21FE E8 02             10098 	lda	sp,2(sp)
                          10099 ;	sound.c 889
                          10100 ; genCmpEq
                          10101 ; AOP_STK for _wait_event_l_1_1
   2200 2A                10102 	ld	a,(hl+)
   2201 B6                10103 	or	a,(hl)
                          10104 ; Rule 5
   2202 CA 8D 22          10105 	jp	z,00112$
   2205                   10106 00180$:
                          10107 ;	sound.c 890
                          10108 ; genAssign
                          10109 ; AOP_HL for _keys
   2205 21 01 00          10110 	ld	hl,#_keys + 0
   2208 4E                10111 	ld	c,(hl)
                          10112 ; genAnd
   2209 79                10113 	ld	a,c
   220A CB 67             10114 	bit	4,a
   220C CA 3A 22          10115 	jp	z,00109$
                          10116 ;	sound.c 891
                          10117 ; genCmpGt
                          10118 ; AOP_STK for _wait_event_l_1_1
   220F F8 06             10119 	lda	hl,6(sp)
   2211 5E                10120 	ld	e,(hl)
   2212 23                10121 	inc	hl
   2213 56                10122 	ld	d,(hl)
   2214 21 F6 FF          10123 	ld	hl,#0xFFF6
   2217 19                10124 	add	hl,de
   2218 D2 30 22          10125 	jp	nc,00153$
                          10126 ; genMinus
                          10127 ; AOP_STK for _wait_event_l_1_1
   221B F8 06             10128 	lda	hl,6(sp)
   221D 5E                10129 	ld	e,(hl)
   221E 23                10130 	inc	hl
   221F 56                10131 	ld	d,(hl)
   2220 21 0A 00          10132 	ld	hl,#0x000A
   2223 7B                10133 	ld	a,e
   2224 95                10134 	sub	a,l
   2225 5F                10135 	ld	e,a
   2226 7A                10136 	ld	a,d
   2227 9C                10137 	sbc	a,h
   2228 F8 07             10138 	lda	hl,7(sp)
   222A 77                10139 	ld	(hl),a
   222B 2B                10140 	dec	hl
   222C 73                10141 	ld	(hl),e
                          10142 ; genGoto
   222D C3 37 22          10143 	jp	00154$
                          10144 ; genLabel
   2230                   10145 00153$:
                          10146 ; genAssign
                          10147 ; AOP_STK for _wait_event_l_1_1
   2230 F8 06             10148 	lda	hl,6(sp)
   2232 36 00             10149 	ld	(hl),#0x00
   2234 23                10150 	inc	hl
   2235 36 00             10151 	ld	(hl),#0x00
                          10152 ; genLabel
   2237                   10153 00154$:
                          10154 ; genAssign
                          10155 ; AOP_STK for _wait_event_l_1_1
                          10156 ; (registers are the same)
                          10157 ; genGoto
   2237 C3 60 22          10158 	jp	00110$
                          10159 ; genLabel
   223A                   10160 00109$:
                          10161 ;	sound.c 892
                          10162 ; genAssign
                          10163 ; AOP_HL for _keys
   223A 21 01 00          10164 	ld	hl,#_keys + 0
   223D 4E                10165 	ld	c,(hl)
                          10166 ; genAnd
   223E 79                10167 	ld	a,c
   223F CB 6F             10168 	bit	5,a
   2241 CA 4E 22          10169 	jp	z,00106$
                          10170 ;	sound.c 893
                          10171 ; genAssign
                          10172 ; AOP_STK for _wait_event_l_1_1
   2244 F8 06             10173 	lda	hl,6(sp)
   2246 36 00             10174 	ld	(hl),#0x00
   2248 23                10175 	inc	hl
   2249 36 00             10176 	ld	(hl),#0x00
                          10177 ; genGoto
   224B C3 60 22          10178 	jp	00110$
                          10179 ; genLabel
   224E                   10180 00106$:
                          10181 ;	sound.c 895
                          10182 ; genMinus
                          10183 ; AOP_STK for _wait_event_l_1_1
   224E F8 06             10184 	lda	hl,6(sp)
   2250 5E                10185 	ld	e,(hl)
   2251 23                10186 	inc	hl
   2252 56                10187 	ld	d,(hl)
   2253 21 01 00          10188 	ld	hl,#0x0001
   2256 7B                10189 	ld	a,e
   2257 95                10190 	sub	a,l
   2258 5F                10191 	ld	e,a
   2259 7A                10192 	ld	a,d
   225A 9C                10193 	sbc	a,h
   225B F8 07             10194 	lda	hl,7(sp)
   225D 77                10195 	ld	(hl),a
   225E 2B                10196 	dec	hl
   225F 73                10197 	ld	(hl),e
                          10198 ; genLabel
   2260                   10199 00110$:
                          10200 ;	sound.c 896
                          10201 ; genCast
                          10202 ; AOP_STK for _wait_event_y_1_1
                          10203 ; AOP_STK for _wait_event_sloc0_1_0
   2260 F8 09             10204 	lda	hl,9(sp)
   2262 7E                10205 	ld	a,(hl)
   2263 F8 02             10206 	lda	hl,2(sp)
   2265 22                10207 	ld	(hl+),a
   2266 36 00             10208 	ld	(hl),#0x00
                          10209 ; genMinus
                          10210 ; AOP_STK for _wait_event_sloc0_1_0
   2268 2B                10211 	dec	hl
   2269 5E                10212 	ld	e,(hl)
   226A 23                10213 	inc	hl
   226B 56                10214 	ld	d,(hl)
   226C 21 02 00          10215 	ld	hl,#0x0002
   226F 7B                10216 	ld	a,e
   2270 95                10217 	sub	a,l
   2271 5F                10218 	ld	e,a
   2272 7A                10219 	ld	a,d
   2273 9C                10220 	sbc	a,h
   2274 F8 03             10221 	lda	hl,3(sp)
   2276 77                10222 	ld	(hl),a
   2277 2B                10223 	dec	hl
   2278 73                10224 	ld	(hl),e
                          10225 ; genCast
                          10226 ; AOP_STK for _wait_event_sloc0_1_0
   2279 4E                10227 	ld	c,(hl)
                          10228 ; genIpush
                          10229 ; AOP_STK for _wait_event_l_1_1
   227A F8 06             10230 	lda	hl,6(sp)
   227C 2A                10231 	ld	a,(hl+)
   227D 66                10232 	ld	h,(hl)
   227E 6F                10233 	ld	l,a
   227F E5                10234 	push	hl
                          10235 ; genIpush
   2280 79                10236 	ld	a,c
   2281 F5                10237 	push	af
   2282 33                10238 	inc	sp
                          10239 ; genIpush
                          10240 ; AOP_STK for 
   2283 F8 12             10241 	lda	hl,18(sp)
   2285 7E                10242 	ld	a,(hl)
   2286 F5                10243 	push	af
   2287 33                10244 	inc	sp
                          10245 ; genCall
   2288 CD 0A 12          10246 	call	_update_value
   228B E8 04             10247 	lda	sp,4(sp)
                          10248 ; genLabel
   228D                   10249 00112$:
                          10250 ;	sound.c 898
                          10251 ; genIpush
                          10252 ; AOP_STK for _wait_event_y_1_1
   228D F8 09             10253 	lda	hl,9(sp)
   228F 7E                10254 	ld	a,(hl)
   2290 F5                10255 	push	af
   2291 33                10256 	inc	sp
                          10257 ; genIpush
   2292 3E 0F             10258 	ld	a,#0x0F
   2294 F5                10259 	push	af
   2295 33                10260 	inc	sp
                          10261 ; genCall
   2296 CD 00 00          10262 	call	_gotoxy
   2299 E8 02             10263 	lda	sp,2(sp)
                          10264 ; genIpush
   229B 21 88 24          10265 	ld	hl,#__str_83 + 0
   229E E5                10266 	push	hl
                          10267 ; genCall
   229F CD 39 00          10268 	call	_print
   22A2 E8 02             10269 	lda	sp,2(sp)
                          10270 ;	sound.c 899
                          10271 ; genIpush
                          10272 ; AOP_STK for _wait_event_y_1_1
   22A4 F8 09             10273 	lda	hl,9(sp)
   22A6 7E                10274 	ld	a,(hl)
   22A7 F5                10275 	push	af
   22A8 33                10276 	inc	sp
                          10277 ; genIpush
   22A9 3E 0F             10278 	ld	a,#0x0F
   22AB F5                10279 	push	af
   22AC 33                10280 	inc	sp
                          10281 ; genCall
   22AD CD 00 00          10282 	call	_gotoxy
   22B0 E8 02             10283 	lda	sp,2(sp)
                          10284 ; genIpush
   22B2 3E 00             10285 	ld	a,#0x00
   22B4 F5                10286 	push	af
   22B5 33                10287 	inc	sp
                          10288 ; genIpush
   22B6 3E 0A             10289 	ld	a,#0x0A
   22B8 F5                10290 	push	af
   22B9 33                10291 	inc	sp
                          10292 ; genIpush
                          10293 ; AOP_STK for _wait_event_l_1_1
   22BA F8 08             10294 	lda	hl,8(sp)
   22BC 2A                10295 	ld	a,(hl+)
   22BD 66                10296 	ld	h,(hl)
   22BE 6F                10297 	ld	l,a
   22BF E5                10298 	push	hl
                          10299 ; genCall
   22C0 CD D2 00          10300 	call	_println
   22C3 E8 04             10301 	lda	sp,4(sp)
                          10302 ; genGoto
   22C5 C3 6F 24          10303 	jp	00143$
                          10304 ; genLabel
   22C8                   10305 00134$:
                          10306 ;	sound.c 900
                          10307 ; genAssign
                          10308 ; AOP_HL for _keys
   22C8 21 01 00          10309 	ld	hl,#_keys + 0
   22CB 4E                10310 	ld	c,(hl)
                          10311 ; genAnd
   22CC 79                10312 	ld	a,c
   22CD CB 47             10313 	bit	0,a
   22CF CA 1F 24          10314 	jp	z,00130$
                          10315 ; genAnd
                          10316 ; AOP_HL for _previous_keys
   22D2 21 00 00          10317 	ld	hl,#_previous_keys + 0
   22D5 7E                10318 	ld	a,(hl)
   22D6 CB 47             10319 	bit	0,a
   22D8 C2 1F 24          10320 	jp	nz,00130$
                          10321 ;	sound.c 901
                          10322 ; genCast
                          10323 ; AOP_STK for _wait_event_y_1_1
                          10324 ; AOP_STK for _wait_event_sloc0_1_0
   22DB F8 09             10325 	lda	hl,9(sp)
   22DD 7E                10326 	ld	a,(hl)
   22DE F8 02             10327 	lda	hl,2(sp)
   22E0 22                10328 	ld	(hl+),a
   22E1 36 00             10329 	ld	(hl),#0x00
                          10330 ; genMinus
                          10331 ; AOP_STK for _wait_event_sloc0_1_0
                          10332 ; AOP_STK for _wait_event_sloc1_1_0
   22E3 2B                10333 	dec	hl
   22E4 5E                10334 	ld	e,(hl)
   22E5 23                10335 	inc	hl
   22E6 56                10336 	ld	d,(hl)
   22E7 21 02 00          10337 	ld	hl,#0x0002
   22EA 7B                10338 	ld	a,e
   22EB 95                10339 	sub	a,l
   22EC 5F                10340 	ld	e,a
   22ED 7A                10341 	ld	a,d
   22EE 9C                10342 	sbc	a,h
   22EF F8 01             10343 	lda	hl,1(sp)
   22F1 77                10344 	ld	(hl),a
   22F2 2B                10345 	dec	hl
   22F3 73                10346 	ld	(hl),e
                          10347 ; genCast
                          10348 ; AOP_STK for _wait_event_sloc1_1_0
   22F4 4E                10349 	ld	c,(hl)
                          10350 ; genIpush
   22F5 79                10351 	ld	a,c
   22F6 F5                10352 	push	af
   22F7 33                10353 	inc	sp
                          10354 ; genIpush
                          10355 ; AOP_STK for 
   22F8 F8 10             10356 	lda	hl,16(sp)
   22FA 7E                10357 	ld	a,(hl)
   22FB F5                10358 	push	af
   22FC 33                10359 	inc	sp
                          10360 ; genCall
   22FD CD 92 0B          10361 	call	_current_value
                          10362 ; AOP_STK for _wait_event_l_1_1
   2300 F8 09             10363 	lda	hl,9(sp)
   2302 72                10364 	ld	(hl),d
   2303 2B                10365 	dec	hl
   2304 73                10366 	ld	(hl),e
   2305 E8 02             10367 	lda	sp,2(sp)
                          10368 ;	sound.c 902
                          10369 ; genMinus
                          10370 ; AOP_STK for _wait_event_sloc0_1_0
                          10371 ; AOP_STK for _wait_event_sloc1_1_0
   2307 F8 02             10372 	lda	hl,2(sp)
   2309 5E                10373 	ld	e,(hl)
   230A 23                10374 	inc	hl
   230B 56                10375 	ld	d,(hl)
   230C 21 01 00          10376 	ld	hl,#0x0001
   230F 7B                10377 	ld	a,e
   2310 95                10378 	sub	a,l
   2311 5F                10379 	ld	e,a
   2312 7A                10380 	ld	a,d
   2313 9C                10381 	sbc	a,h
   2314 F8 01             10382 	lda	hl,1(sp)
   2316 77                10383 	ld	(hl),a
   2317 2B                10384 	dec	hl
   2318 73                10385 	ld	(hl),e
                          10386 ; genLeftShift
                          10387 ; AOP_STK for _wait_event_sloc1_1_0
   2319 3E 03             10388 	ld	a,#0x02+1
   231B 18 08             10389 	jr	00182$
   231D                   10390 00181$:
   231D B7                10391 	or	a,a
   231E F8 00             10392 	lda	hl,0(sp)
   2320 CB 16             10393 	rl	(hl)
   2322 23                10394 	inc	hl
   2323 CB 16             10395 	rl	(hl)
   2325                   10396 00182$:
   2325 3D                10397 	dec	a
   2326 20 F5             10398 	jr	nz,00181$
                          10399 ; genPlus
                          10400 ; AOP_HL for _params
                          10401 ; AOP_STK for _wait_event_sloc1_1_0
                          10402 ;	genPlusIncr failed
   2328 21 0C 00          10403 	ld	hl,#_params + 0
   232B 5E                10404 	ld	e,(hl)
   232C 23                10405 	inc	hl
   232D 56                10406 	ld	d,(hl)
   232E F8 00             10407 	lda	hl,0(sp)
   2330 2A                10408 	ld	a,(hl+)
   2331 66                10409 	ld	h,(hl)
   2332 6F                10410 	ld	l,a
   2333 19                10411 	add	hl,de
   2334 7D                10412 	ld	a,l
   2335 54                10413 	ld	d,h
   2336 F8 00             10414 	lda	hl,0(sp)
   2338 22                10415 	ld	(hl+),a
   2339 72                10416 	ld	(hl),d
                          10417 ; genPlus
                          10418 ; AOP_STK for _wait_event_sloc1_1_0
                          10419 ; genPlusIncr
   233A 2B                10420 	dec	hl
   233B 5E                10421 	ld	e,(hl)
   233C 23                10422 	inc	hl
   233D 56                10423 	ld	d,(hl)
   233E 13                10424 	inc	de
   233F 13                10425 	inc	de
                          10426 ; genPointerGet
                          10427 ; AOP_STK for _wait_event_m_1_1
                          10428 ; Removed redundent load
                          10429 ; Removed redundent load
   2340 1A                10430 	ld	a,(de)
   2341 F8 04             10431 	lda	hl,4(sp)
   2343 77                10432 	ld	(hl),a
   2344 13                10433 	inc	de
   2345 1A                10434 	ld	a,(de)
   2346 23                10435 	inc	hl
   2347 77                10436 	ld	(hl),a
                          10437 ;	sound.c 903
                          10438 ; genCmpEq
                          10439 ; AOP_STK for _wait_event_l_1_1
                          10440 ; AOP_STK for _wait_event_m_1_1
   2348 2B                10441 	dec	hl
   2349 2A                10442 	ld	a,(hl+)
   234A 23                10443 	inc	hl
   234B BE                10444 	cp	(hl) ; 5
   234C 20 09             10445 	jr	nz,00183$
   234E 2B                10446 	dec	hl
   234F 2A                10447 	ld	a,(hl+)
   2350 23                10448 	inc	hl
   2351 BE                10449 	cp	(hl) ; 5
   2352 20 03             10450 	jr	nz,00183$
   2354 C3 E4 23          10451 	jp	00120$
   2357                   10452 00183$:
                          10453 ;	sound.c 904
                          10454 ; genAssign
                          10455 ; AOP_HL for _keys
   2357 21 01 00          10456 	ld	hl,#_keys + 0
   235A 4E                10457 	ld	c,(hl)
                          10458 ; genAnd
   235B 79                10459 	ld	a,c
   235C CB 67             10460 	bit	4,a
   235E CA 9C 23          10461 	jp	z,00117$
                          10462 ;	sound.c 905
                          10463 ; genMinus
                          10464 ; AOP_STK for _wait_event_m_1_1
                          10465 ; AOP_STK for _wait_event_sloc1_1_0
   2361 F8 04             10466 	lda	hl,4(sp)
   2363 5E                10467 	ld	e,(hl)
   2364 23                10468 	inc	hl
   2365 56                10469 	ld	d,(hl)
   2366 21 0A 00          10470 	ld	hl,#0x000A
   2369 7B                10471 	ld	a,e
   236A 95                10472 	sub	a,l
   236B 5F                10473 	ld	e,a
   236C 7A                10474 	ld	a,d
   236D 9C                10475 	sbc	a,h
   236E F8 01             10476 	lda	hl,1(sp)
   2370 77                10477 	ld	(hl),a
   2371 2B                10478 	dec	hl
   2372 73                10479 	ld	(hl),e
                          10480 ; genCmpGt
                          10481 ; AOP_STK for _wait_event_l_1_1
                          10482 ; AOP_STK for _wait_event_sloc1_1_0
   2373 AF                10483 	xor	a,a
   2374 7E                10484 	ld	a,(hl)
   2375 F8 06             10485 	lda	hl,6(sp)
   2377 9E                10486 	sbc	a,(hl) ; 2
   2378 F8 01             10487 	lda	hl,1(sp)
   237A 7E                10488 	ld	a,(hl)
   237B F8 07             10489 	lda	hl,7(sp)
   237D 9E                10490 	sbc	a,(hl) ; 2
   237E D2 92 23          10491 	jp	nc,00155$
                          10492 ; genPlus
                          10493 ; AOP_STK for _wait_event_l_1_1
                          10494 ; genPlusIncr
                          10495 ;	genPlusIncr failed
   2381 2B                10496 	dec	hl
   2382 5E                10497 	ld	e,(hl)
   2383 23                10498 	inc	hl
   2384 56                10499 	ld	d,(hl)
   2385 21 0A 00          10500 	ld	hl,#0x000A
   2388 19                10501 	add	hl,de
   2389 7D                10502 	ld	a,l
   238A 54                10503 	ld	d,h
   238B F8 06             10504 	lda	hl,6(sp)
   238D 22                10505 	ld	(hl+),a
   238E 72                10506 	ld	(hl),d
                          10507 ; genGoto
   238F C3 99 23          10508 	jp	00156$
                          10509 ; genLabel
   2392                   10510 00155$:
                          10511 ; genAssign
                          10512 ; AOP_STK for _wait_event_m_1_1
                          10513 ; AOP_STK for _wait_event_l_1_1
   2392 F8 04             10514 	lda	hl,4(sp)
   2394 2A                10515 	ld	a,(hl+)
   2395 5E                10516 	ld	e,(hl)
   2396 23                10517 	inc	hl
   2397 22                10518 	ld	(hl+),a
   2398 73                10519 	ld	(hl),e
                          10520 ; genLabel
   2399                   10521 00156$:
                          10522 ; genAssign
                          10523 ; AOP_STK for _wait_event_l_1_1
                          10524 ; (registers are the same)
                          10525 ; genGoto
   2399 C3 B7 23          10526 	jp	00118$
                          10527 ; genLabel
   239C                   10528 00117$:
                          10529 ;	sound.c 906
                          10530 ; genAssign
                          10531 ; AOP_HL for _keys
   239C 21 01 00          10532 	ld	hl,#_keys + 0
   239F 4E                10533 	ld	c,(hl)
                          10534 ; genAnd
   23A0 79                10535 	ld	a,c
   23A1 CB 6F             10536 	bit	5,a
   23A3 CA B0 23          10537 	jp	z,00114$
                          10538 ;	sound.c 907
                          10539 ; genAssign
                          10540 ; AOP_STK for _wait_event_m_1_1
                          10541 ; AOP_STK for _wait_event_l_1_1
   23A6 F8 04             10542 	lda	hl,4(sp)
   23A8 2A                10543 	ld	a,(hl+)
   23A9 5E                10544 	ld	e,(hl)
   23AA 23                10545 	inc	hl
   23AB 22                10546 	ld	(hl+),a
   23AC 73                10547 	ld	(hl),e
                          10548 ; genGoto
   23AD C3 B7 23          10549 	jp	00118$
                          10550 ; genLabel
   23B0                   10551 00114$:
                          10552 ;	sound.c 909
                          10553 ; genPlus
                          10554 ; AOP_STK for _wait_event_l_1_1
                          10555 ; genPlusIncr
   23B0 F8 06             10556 	lda	hl,6(sp)
   23B2 34                10557 	inc	(hl)
   23B3 20 02             10558 	jr	nz,00184$
   23B5 23                10559 	inc	hl
   23B6 34                10560 	inc	(hl)
   23B7                   10561 00184$:
                          10562 ; genLabel
   23B7                   10563 00118$:
                          10564 ;	sound.c 910
                          10565 ; genCast
                          10566 ; AOP_STK for _wait_event_y_1_1
                          10567 ; AOP_STK for _wait_event_sloc1_1_0
   23B7 F8 09             10568 	lda	hl,9(sp)
   23B9 7E                10569 	ld	a,(hl)
   23BA F8 00             10570 	lda	hl,0(sp)
   23BC 22                10571 	ld	(hl+),a
   23BD 36 00             10572 	ld	(hl),#0x00
                          10573 ; genMinus
                          10574 ; AOP_STK for _wait_event_sloc1_1_0
   23BF 2B                10575 	dec	hl
   23C0 5E                10576 	ld	e,(hl)
   23C1 23                10577 	inc	hl
   23C2 56                10578 	ld	d,(hl)
   23C3 21 02 00          10579 	ld	hl,#0x0002
   23C6 7B                10580 	ld	a,e
   23C7 95                10581 	sub	a,l
   23C8 5F                10582 	ld	e,a
   23C9 7A                10583 	ld	a,d
   23CA 9C                10584 	sbc	a,h
   23CB F8 01             10585 	lda	hl,1(sp)
   23CD 77                10586 	ld	(hl),a
   23CE 2B                10587 	dec	hl
   23CF 73                10588 	ld	(hl),e
                          10589 ; genCast
                          10590 ; AOP_STK for _wait_event_sloc1_1_0
   23D0 4E                10591 	ld	c,(hl)
                          10592 ; genIpush
                          10593 ; AOP_STK for _wait_event_l_1_1
   23D1 F8 06             10594 	lda	hl,6(sp)
   23D3 2A                10595 	ld	a,(hl+)
   23D4 66                10596 	ld	h,(hl)
   23D5 6F                10597 	ld	l,a
   23D6 E5                10598 	push	hl
                          10599 ; genIpush
   23D7 79                10600 	ld	a,c
   23D8 F5                10601 	push	af
   23D9 33                10602 	inc	sp
                          10603 ; genIpush
                          10604 ; AOP_STK for 
   23DA F8 12             10605 	lda	hl,18(sp)
   23DC 7E                10606 	ld	a,(hl)
   23DD F5                10607 	push	af
   23DE 33                10608 	inc	sp
                          10609 ; genCall
   23DF CD 0A 12          10610 	call	_update_value
   23E2 E8 04             10611 	lda	sp,4(sp)
                          10612 ; genLabel
   23E4                   10613 00120$:
                          10614 ;	sound.c 912
                          10615 ; genIpush
                          10616 ; AOP_STK for _wait_event_y_1_1
   23E4 F8 09             10617 	lda	hl,9(sp)
   23E6 7E                10618 	ld	a,(hl)
   23E7 F5                10619 	push	af
   23E8 33                10620 	inc	sp
                          10621 ; genIpush
   23E9 3E 0F             10622 	ld	a,#0x0F
   23EB F5                10623 	push	af
   23EC 33                10624 	inc	sp
                          10625 ; genCall
   23ED CD 00 00          10626 	call	_gotoxy
   23F0 E8 02             10627 	lda	sp,2(sp)
                          10628 ; genIpush
   23F2 21 8D 24          10629 	ld	hl,#__str_84 + 0
   23F5 E5                10630 	push	hl
                          10631 ; genCall
   23F6 CD 39 00          10632 	call	_print
   23F9 E8 02             10633 	lda	sp,2(sp)
                          10634 ;	sound.c 913
                          10635 ; genIpush
                          10636 ; AOP_STK for _wait_event_y_1_1
   23FB F8 09             10637 	lda	hl,9(sp)
   23FD 7E                10638 	ld	a,(hl)
   23FE F5                10639 	push	af
   23FF 33                10640 	inc	sp
                          10641 ; genIpush
   2400 3E 0F             10642 	ld	a,#0x0F
   2402 F5                10643 	push	af
   2403 33                10644 	inc	sp
                          10645 ; genCall
   2404 CD 00 00          10646 	call	_gotoxy
   2407 E8 02             10647 	lda	sp,2(sp)
                          10648 ; genIpush
   2409 3E 00             10649 	ld	a,#0x00
   240B F5                10650 	push	af
   240C 33                10651 	inc	sp
                          10652 ; genIpush
   240D 3E 0A             10653 	ld	a,#0x0A
   240F F5                10654 	push	af
   2410 33                10655 	inc	sp
                          10656 ; genIpush
                          10657 ; AOP_STK for _wait_event_l_1_1
   2411 F8 08             10658 	lda	hl,8(sp)
   2413 2A                10659 	ld	a,(hl+)
   2414 66                10660 	ld	h,(hl)
   2415 6F                10661 	ld	l,a
   2416 E5                10662 	push	hl
                          10663 ; genCall
   2417 CD D2 00          10664 	call	_println
   241A E8 04             10665 	lda	sp,4(sp)
                          10666 ; genGoto
   241C C3 6F 24          10667 	jp	00143$
                          10668 ; genLabel
   241F                   10669 00130$:
                          10670 ;	sound.c 914
                          10671 ; genAnd
                          10672 ; AOP_STK for _wait_event_input_1_1
   241F F8 0A             10673 	lda	hl,10(sp)
   2421 7E                10674 	ld	a,(hl)
   2422 CB 7F             10675 	bit	7,a
   2424 CA 3F 24          10676 	jp	z,00127$
                          10677 ;	sound.c 918
                          10678 ; genIpush
   2427 21 01 00          10679 	ld	hl,#0x0001
   242A E5                10680 	push	hl
                          10681 ; genIpush
   242B 3E 20             10682 	ld	a,#0x20
   242D F5                10683 	push	af
   242E 33                10684 	inc	sp
                          10685 ; genIpush
                          10686 ; AOP_STK for 
   242F F8 12             10687 	lda	hl,18(sp)
   2431 7E                10688 	ld	a,(hl)
   2432 F5                10689 	push	af
   2433 33                10690 	inc	sp
                          10691 ; genCall
   2434 CD 0A 12          10692 	call	_update_value
   2437 E8 04             10693 	lda	sp,4(sp)
                          10694 ;	sound.c 919
                          10695 ; genCall
   2439 CD 00 00          10696 	call	_waitpadup
                          10697 ; genGoto
   243C C3 6F 24          10698 	jp	00143$
                          10699 ; genLabel
   243F                   10700 00127$:
                          10701 ;	sound.c 920
                          10702 ; genAnd
                          10703 ; AOP_STK for _wait_event_input_1_1
   243F F8 0A             10704 	lda	hl,10(sp)
   2441 7E                10705 	ld	a,(hl)
   2442 CB 77             10706 	bit	6,a
   2444 CA 6F 24          10707 	jp	z,00143$
                          10708 ;	sound.c 921
                          10709 ; genAnd
                          10710 ; AOP_STK for _wait_event_input_1_1
   2447 7E                10711 	ld	a,(hl)
   2448 CB 67             10712 	bit	4,a
   244A CA 53 24          10713 	jp	z,00122$
                          10714 ;	sound.c 922
                          10715 ; genCall
   244D CD AE 1D          10716 	call	_dump_registers
                          10717 ; genGoto
   2450 C3 69 24          10718 	jp	00123$
                          10719 ; genLabel
   2453                   10720 00122$:
                          10721 ;	sound.c 924
                          10722 ; genPlus
                          10723 ; AOP_STK for 
                          10724 ; genPlusIncr
                          10725 ;	genPlusIncr failed
   2453 F8 0F             10726 	lda	hl,15(sp)
   2455 7E                10727 	ld	a,(hl)
   2456 C6 01             10728 	add	a,#0x01
   2458 4F                10729 	ld	c,a
                          10730 ; genIpush
   2459 3E 05             10731 	ld	a,#0x05
   245B F5                10732 	push	af
   245C 33                10733 	inc	sp
                          10734 ; genIpush
   245D 79                10735 	ld	a,c
   245E F5                10736 	push	af
   245F 33                10737 	inc	sp
                          10738 ; genCall
   2460 CD 00 00          10739 	call	__moduchar
   2463 4B                10740 	ld	c,e
   2464 E8 02             10741 	lda	sp,2(sp)
                          10742 ; genAssign
                          10743 ; AOP_STK for 
   2466 F8 0F             10744 	lda	hl,15(sp)
   2468 71                10745 	ld	(hl),c
                          10746 ; genLabel
   2469                   10747 00123$:
                          10748 ;	sound.c 925
                          10749 ; genCall
   2469 CD 00 00          10750 	call	_waitpadup
                          10751 ;	sound.c 926
                          10752 ; genGoto
   246C C3 DA 20          10753 	jp	00149$
                          10754 ; genLabel
   246F                   10755 00143$:
                          10756 ;	sound.c 929
                          10757 ; genCall
   246F CD 00 00          10758 	call	_wait_vbl_done
                          10759 ;	sound.c 930
                          10760 ; genAssign
                          10761 ; AOP_HL for _keys
                          10762 ; AOP_HL for _previous_keys
   2472 21 01 00          10763 	ld	hl,#_keys + 0
   2475 7E                10764 	ld	a,(hl)
   2476 21 00 00          10765 	ld	hl,#_previous_keys + 0
   2479 77                10766 	ld	(hl),a
                          10767 ; genCall
   247A CD 00 00          10768 	call	_joypad
                          10769 ; AOP_HL for _keys
   247D 21 01 00          10770 	ld	hl,#_keys + 0
   2480 73                10771 	ld	(hl),e
                          10772 ; genGoto
   2481 C3 1C 21          10773 	jp	00146$
                          10774 ; genLabel
   2484                   10775 00151$:
                          10776 ; genEndFunction
   2484 E8 0B             10777 	lda	sp,11(sp)
   2486 C1                10778 	pop	bc
   2487 C9                10779 	ret
   2488                   10780 ___wait_event_end:
   2488                   10781 __str_83:
   2488 20 20 20 20       10782 	.ascii "    "
   248C 00                10783 	.db 0x00
   248D                   10784 __str_84:
   248D 20 20 20 20       10785 	.ascii "    "
   2491 00                10786 	.db 0x00
                          10787 ;	sound.c 935
                          10788 ; genLabel
                          10789 ; genFunction
                          10790 ;	---------------------------------
                          10791 ; Function main
                          10792 ; ---------------------------------
   2492                   10793 ___main_start:
   2492                   10794 _main:
                          10795 	
                          10796 ;	sound.c 941
                          10797 ; genAssign
                          10798 ; AOP_SFR for _NR52_REG
   2492 3E 80             10799 	ld	a,#0x80
   2494 E0 00             10800 	ldh	(_NR52_REG+0),a
                          10801 ;	sound.c 943
                          10802 ; genAddrOf
                          10803 ; AOP_HL for _soundReg
   2496 11 10 00          10804 	ld	de,#_s
   2499 21 0E 00          10805 	ld	hl,#_soundReg + 0
   249C 73                10806 	ld	(hl),e
   249D 23                10807 	inc	hl
   249E 72                10808 	ld	(hl),d
                          10809 ;	sound.c 944
                          10810 ; genCall
   249F CD F2 00          10811 	call	_NR10
                          10812 ; AOP_SFR for _NR10_REG
   24A2 7B                10813 	ld	a,e
   24A3 E0 00             10814 	ldh	(_NR10_REG+0),a
                          10815 ;	sound.c 945
                          10816 ; genCall
   24A5 CD 1B 05          10817 	call	_NR11
                          10818 ; AOP_SFR for _NR11_REG
   24A8 7B                10819 	ld	a,e
   24A9 E0 00             10820 	ldh	(_NR11_REG+0),a
                          10821 ;	sound.c 946
                          10822 ; genCall
   24AB CD 61 05          10823 	call	_NR12
                          10824 ; AOP_SFR for _NR12_REG
   24AE 7B                10825 	ld	a,e
   24AF E0 00             10826 	ldh	(_NR12_REG+0),a
                          10827 ;	sound.c 947
                          10828 ; genCall
   24B1 CD CE 05          10829 	call	_NR13
                          10830 ; AOP_SFR for _NR13_REG
   24B4 7B                10831 	ld	a,e
   24B5 E0 00             10832 	ldh	(_NR13_REG+0),a
                          10833 ;	sound.c 948
                          10834 ; genCall
   24B7 CD E5 05          10835 	call	_NR14
                          10836 ; AOP_SFR for _NR14_REG
   24BA 7B                10837 	ld	a,e
   24BB E0 00             10838 	ldh	(_NR14_REG+0),a
                          10839 ;	sound.c 950
                          10840 ; genCall
   24BD CD 52 06          10841 	call	_NR21
                          10842 ; AOP_SFR for _NR21_REG
   24C0 7B                10843 	ld	a,e
   24C1 E0 00             10844 	ldh	(_NR21_REG+0),a
                          10845 ;	sound.c 951
                          10846 ; genCall
   24C3 CD 98 06          10847 	call	_NR22
                          10848 ; AOP_SFR for _NR22_REG
   24C6 7B                10849 	ld	a,e
   24C7 E0 00             10850 	ldh	(_NR22_REG+0),a
                          10851 ;	sound.c 952
                          10852 ; genCall
   24C9 CD 05 07          10853 	call	_NR23
                          10854 ; AOP_SFR for _NR23_REG
   24CC 7B                10855 	ld	a,e
   24CD E0 00             10856 	ldh	(_NR23_REG+0),a
                          10857 ;	sound.c 953
                          10858 ; genCall
   24CF CD 1C 07          10859 	call	_NR24
                          10860 ; AOP_SFR for _NR24_REG
   24D2 7B                10861 	ld	a,e
   24D3 E0 00             10862 	ldh	(_NR24_REG+0),a
                          10863 ;	sound.c 955
                          10864 ; genCall
   24D5 CD 89 07          10865 	call	_NR30
                          10866 ; AOP_SFR for _NR30_REG
   24D8 7B                10867 	ld	a,e
   24D9 E0 00             10868 	ldh	(_NR30_REG+0),a
                          10869 ;	sound.c 956
                          10870 ; genCall
   24DB CD AC 07          10871 	call	_NR31
                          10872 ; AOP_SFR for _NR31_REG
   24DE 7B                10873 	ld	a,e
   24DF E0 00             10874 	ldh	(_NR31_REG+0),a
                          10875 ;	sound.c 957
                          10876 ; genCall
   24E1 CD C3 07          10877 	call	_NR32
                          10878 ; AOP_SFR for _NR32_REG
   24E4 7B                10879 	ld	a,e
   24E5 E0 00             10880 	ldh	(_NR32_REG+0),a
                          10881 ;	sound.c 958
                          10882 ; genCall
   24E7 CD E6 07          10883 	call	_NR33
                          10884 ; AOP_SFR for _NR33_REG
   24EA 7B                10885 	ld	a,e
   24EB E0 00             10886 	ldh	(_NR33_REG+0),a
                          10887 ;	sound.c 959
                          10888 ; genCall
   24ED CD FD 07          10889 	call	_NR34
                          10890 ; AOP_SFR for _NR34_REG
   24F0 7B                10891 	ld	a,e
   24F1 E0 00             10892 	ldh	(_NR34_REG+0),a
                          10893 ;	sound.c 961
                          10894 ; genCall
   24F3 CD 6A 08          10895 	call	_NR41
                          10896 ; AOP_SFR for _NR41_REG
   24F6 7B                10897 	ld	a,e
   24F7 E0 00             10898 	ldh	(_NR41_REG+0),a
                          10899 ;	sound.c 962
                          10900 ; genCall
   24F9 CD 81 08          10901 	call	_NR42
                          10902 ; AOP_SFR for _NR42_REG
   24FC 7B                10903 	ld	a,e
   24FD E0 00             10904 	ldh	(_NR42_REG+0),a
                          10905 ;	sound.c 963
                          10906 ; genCall
   24FF CD EE 08          10907 	call	_NR43
                          10908 ; AOP_SFR for _NR43_REG
   2502 7B                10909 	ld	a,e
   2503 E0 00             10910 	ldh	(_NR43_REG+0),a
                          10911 ;	sound.c 964
                          10912 ; genCall
   2505 CD 5B 09          10913 	call	_NR44
                          10914 ; AOP_SFR for _NR44_REG
   2508 7B                10915 	ld	a,e
   2509 E0 00             10916 	ldh	(_NR44_REG+0),a
                          10917 ;	sound.c 966
                          10918 ; genCall
   250B CD B2 09          10919 	call	_NR50
                          10920 ; AOP_SFR for _NR50_REG
   250E 7B                10921 	ld	a,e
   250F E0 00             10922 	ldh	(_NR50_REG+0),a
                          10923 ;	sound.c 967
                          10924 ; genCall
   2511 CD 46 0A          10925 	call	_NR51
                          10926 ; AOP_SFR for _NR51_REG
   2514 7B                10927 	ld	a,e
   2515 E0 00             10928 	ldh	(_NR51_REG+0),a
                          10929 ;	sound.c 968
                          10930 ; genCall
   2517 CD 6F 0B          10931 	call	_NR52
                          10932 ; AOP_SFR for _NR52_REG
   251A 7B                10933 	ld	a,e
   251B E0 00             10934 	ldh	(_NR52_REG+0),a
                          10935 ;	sound.c 970
                          10936 ; genCall
   251D CD 00 00          10937 	call	_cls
                          10938 ;	sound.c 972
                          10939 ; genIpush
   2520 3E 01             10940 	ld	a,#0x01
   2522 F5                10941 	push	af
   2523 33                10942 	inc	sp
                          10943 ; genCall
   2524 CD D7 20          10944 	call	_wait_event
   2527 E8 01             10945 	lda	sp,1(sp)
                          10946 ; genLabel
   2529                   10947 00101$:
                          10948 ; genEndFunction
                          10949 	
   2529 C9                10950 	ret
   252A                   10951 ___main_end:
                          10952 	.area _CODE
ASxxxx Assembler V01.75  (GameBoy Z80-like CPU), page 1.

Symbol Table

    _BCPD_REG                          **** GX
    _BCPS_REG                          **** GX
    _BGP_REG                           **** GX
    _DIV_REG                           **** GX
    _DMA_REG                           **** GX
    _HDMA1_REG                         **** GX
    _HDMA2_REG                         **** GX
    _HDMA3_REG                         **** GX
    _HDMA4_REG                         **** GX
    _HDMA5_REG                         **** GX
    _IE_REG                            **** GX
    _IF_REG                            **** GX
    _KEY1_REG                          **** GX
    _LCDC_REG                          **** GX
    _LYC_REG                           **** GX
    _LY_REG                            **** GX
  0 _NR10                              00F2 GR
    _NR10_REG                          **** GX
  0 _NR11                              051B GR
    _NR11_REG                          **** GX
  0 _NR12                              0561 GR
    _NR12_REG                          **** GX
  0 _NR13                              05CE GR
    _NR13_REG                          **** GX
  0 _NR14                              05E5 GR
    _NR14_REG                          **** GX
  0 _NR21                              0652 GR
    _NR21_REG                          **** GX
  0 _NR22                              0698 GR
    _NR22_REG                          **** GX
  0 _NR23                              0705 GR
    _NR23_REG                          **** GX
  0 _NR24                              071C GR
    _NR24_REG                          **** GX
  0 _NR30                              0789 GR
    _NR30_REG                          **** GX
  0 _NR31                              07AC GR
    _NR31_REG                          **** GX
  0 _NR32                              07C3 GR
    _NR32_REG                          **** GX
  0 _NR33                              07E6 GR
    _NR33_REG                          **** GX
  0 _NR34                              07FD GR
    _NR34_REG                          **** GX
  0 _NR41                              086A GR
    _NR41_REG                          **** GX
  0 _NR42                              0881 GR
    _NR42_REG                          **** GX
  0 _NR43                              08EE GR
    _NR43_REG                          **** GX
  0 _NR44                              095B GR
    _NR44_REG                          **** GX
  0 _NR50                              09B2 GR
    _NR50_REG                          **** GX
  0 _NR51                              0A46 GR
    _NR51_REG                          **** GX
  0 _NR52                              0B6F GR
    _NR52_REG                          **** GX
    _OBP0_REG                          **** GX
    _OBP1_REG                          **** GX
    _OCPD_REG                          **** GX
    _OCPS_REG                          **** GX
    _P1_REG                            **** GX
    _RP_REG                            **** GX
    _SB_REG                            **** GX
    _SCX_REG                           **** GX
    _SCY_REG                           **** GX
    _SC_REG                            **** GX
    _STAT_REG                          **** GX
    _SVBK_REG                          **** GX
    _TAC_REG                           **** GX
    _TIMA_REG                          **** GX
    _TMA_REG                           **** GX
    _VBK_REG                           **** GX
    _WX_REG                            **** GX
    _WY_REG                            **** GX
  0 ___NR10_end                        0153 R
  0 ___NR10_start                      00F2 R
  0 ___NR11_end                        0561 R
  0 ___NR11_start                      051B R
  0 ___NR12_end                        05CE R
  0 ___NR12_start                      0561 R
  0 ___NR13_end                        05E5 R
  0 ___NR13_start                      05CE R
  0 ___NR14_end                        0652 R
  0 ___NR14_start                      05E5 R
  0 ___NR21_end                        0698 R
  0 ___NR21_start                      0652 R
  0 ___NR22_end                        0705 R
  0 ___NR22_start                      0698 R
  0 ___NR23_end                        071C R
  0 ___NR23_start                      0705 R
  0 ___NR24_end                        0789 R
  0 ___NR24_start                      071C R
  0 ___NR30_end                        07AC R
  0 ___NR30_start                      0789 R
  0 ___NR31_end                        07C3 R
  0 ___NR31_start                      07AC R
  0 ___NR32_end                        07E6 R
  0 ___NR32_start                      07C3 R
  0 ___NR33_end                        07FD R
  0 ___NR33_start                      07E6 R
  0 ___NR34_end                        086A R
  0 ___NR34_start                      07FD R
  0 ___NR41_end                        0881 R
  0 ___NR41_start                      086A R
  0 ___NR42_end                        08EE R
  0 ___NR42_start                      0881 R
  0 ___NR43_end                        095B R
  0 ___NR43_start                      08EE R
  0 ___NR44_end                        09B2 R
  0 ___NR44_start                      095B R
  0 ___NR50_end                        0A46 R
  0 ___NR50_start                      09B2 R
  0 ___NR51_end                        0B6F R
  0 ___NR51_start                      0A46 R
  0 ___NR52_end                        0B92 R
  0 ___NR52_start                      0B6F R
  0 ___cls_end                         0024 R
  0 ___cls_start                       0000 R
  0 ___current_value_end               120A R
  0 ___current_value_start             0B92 R
  0 ___draw_screen_end                 1D47 R
  0 ___draw_screen_start               1C9A R
  0 ___dump_registers_end              203D R
  0 ___dump_registers_start            1DAE R
  0 ___main_end                        252A R
  0 ___main_start                      2492 R
  0 ___play_music_end                  1DAE R
  0 ___play_music_start                1D47 R
  0 ___print_end                       0049 R
  0 ___print_start                     0039 R
  0 ___println_end                     00F0 R
  0 ___println_start                   00D2 R
  0 ___printn_end                      00B8 R
  0 ___printn_start                    004C R
  0 ___update_value_end                1C9A R
  0 ___update_value_start              120A R
  0 ___wait_event_end                  2488 R
  0 ___wait_event_start                20D7 R
    __cpu                              **** GX
    __io_in                            **** GX
    __io_out                           **** GX
    __io_status                        **** GX
    __moduchar                         **** GX
  0 __str_0                            0024 R
  0 __str_1                            0049 R
  0 __str_2                            00C9 R
  0 __str_3                            00CC R
  0 __str_4                            00CF R
  0 __str_59                           203D R
  0 __str_6                            00F0 R
  0 __str_60                           204D R
  0 __str_61                           2053 R
  0 __str_62                           2059 R
  0 __str_63                           2060 R
  0 __str_64                           2066 R
  0 __str_65                           206D R
  0 __str_66                           2073 R
  0 __str_67                           207A R
  0 __str_68                           2080 R
  0 __str_69                           2087 R
  0 __str_70                           2089 R
  0 __str_71                           208F R
  0 __str_72                           2095 R
  0 __str_73                           209C R
  0 __str_74                           20A2 R
  0 __str_75                           20A9 R
  0 __str_76                           20AF R
  0 __str_77                           20B6 R
  0 __str_78                           20BC R
  0 __str_79                           20C3 R
  0 __str_80                           20C5 R
  0 __str_81                           20CB R
  0 __str_82                           20D1 R
  0 __str_83                           2488 R
  0 __str_84                           248D R
  0 _cls                               0000 GR
  0 _current_value                     0B92 GR
    _delay                             **** GX
  0 _draw_screen                       1C9A GR
  0 _dump_registers                    1DAE GR
  0 _frequencies                       0153 GR
    _gotoxy                            **** GX
  0 _hex                               00B8 GR
    _joypad                            **** GX
  1 _keys                              0001 GR
  0 _main                              2492 GR
  0 _music                             01E3 GR
  1 _params                            000C GR
  0 _params_0                          0214 GR
  0 _params_1                          0230 GR
  0 _params_2                          026C GR
  0 _params_3                          029C GR
  0 _params_4                          02C4 GR
  1 _params_array                      0002 GR
  0 _play_music                        1D47 GR
  1 _previous_keys                     0000 GR
  0 _print                             0039 GR
    _printf                            **** GX
  0 _println                           00D2 GR
  0 _printn                            004C GR
  1 _s                                 0010 GR
    _setchar                           **** GX
  1 _soundReg                          000E GR
  0 _str_10                            031A R
  0 _str_11                            0323 R
  0 _str_12                            032E R
  0 _str_13                            0339 R
  0 _str_14                            0347 R
  0 _str_15                            0350 R
  0 _str_16                            0359 R
  0 _str_17                            0364 R
  0 _str_18                            036D R
  0 _str_19                            0377 R
  0 _str_20                            0380 R
  0 _str_21                            0389 R
  0 _str_22                            0394 R
  0 _str_23                            039E R
  0 _str_24                            03A7 R
  0 _str_25                            03B2 R
  0 _str_26                            03BD R
  0 _str_27                            03C4 R
  0 _str_28                            03D2 R
  0 _str_29                            03DB R
  0 _str_30                            03E5 R
  0 _str_31                            03EE R
  0 _str_32                            03F7 R
  0 _str_33                            0403 R
  0 _str_34                            040D R
  0 _str_35                            0416 R
  0 _str_36                            0421 R
  0 _str_37                            042C R
  0 _str_38                            0433 R
  0 _str_39                            0441 R
  0 _str_40                            044E R
  0 _str_41                            0458 R
  0 _str_42                            0466 R
  0 _str_43                            0470 R
  0 _str_44                            0479 R
  0 _str_45                            0484 R
  0 _str_46                            048F R
  0 _str_47                            0496 R
  0 _str_48                            04A4 R
  0 _str_49                            04AE R
  0 _str_50                            04B7 R
  0 _str_51                            04C0 R
  0 _str_52                            04CC R
  0 _str_53                            04DA R
  0 _str_54                            04E8 R
  0 _str_55                            04F5 R
  0 _str_56                            04FE R
  0 _str_57                            0509 R
  0 _str_58                            0514 R
  0 _str_7                             02F8 R
  0 _str_8                             0306 R
  0 _str_9                             0311 R
    _sys_time                          **** GX
  0 _update_value                      120A GR
  0 _wait_event                        20D7 GR
    _wait_vbl_done                     **** GX
    _waitpadup                         **** GX

ASxxxx Assembler V01.75  (GameBoy Z80-like CPU), page 2.

Area Table

   0 _CODE                              size 252A   flags 0
   1 _DATA                              size   94   flags 0
   2 _OVERLAY                           size    0   flags 0
   3 _ISEG                              size    0   flags 0
   4 _BSEG                              size    0   flags 0
   5 _XSEG                              size    0   flags 0
   6 _GSINIT                            size  2C6   flags 0
   7 _GSFINAL                           size    0   flags 0
   8 _HOME                              size    0   flags 0
